Archive member included to satisfy reference by file (symbol)

..\..\libs\cpu\libplatform.a(audio_mic.o)
                              Output\obj\driver\driver_saradc.o (audio_mic_analog_init)
..\..\libs\cpu\libplatform.a(audio_mic_trim.o)
                              ..\..\libs\cpu\libplatform.a(audio_mic.o) (audio_mic_trim_sta_set)
..\..\libs\cpu\libplatform.a(cm.o)
                              Output\obj\project\ble_peripheral\bsp\bsp_param.o (cm_sync)
..\..\libs\cpu\libplatform.a(os_flash.o)
                              ..\..\libs\cpu\libplatform.a(cm.o) (os_spiflash_program)
..\..\libs\cpu\libplatform.a(xcfg.o)
                              Output\obj\project\ble_peripheral\bsp\bsp_sys.o (xcfg_init)
..\..\libs\cpu\libplatform.a(main.o)
                              Output\obj\project\ble_peripheral\ble\ble_client.o (delay_ms)
..\..\libs\cpu\libplatform.a(interrupt.o)
                              Output\obj\driver\driver_gpio.o (sys_irq_init)
..\..\libs\cpu\libplatform.a(startup.o)
                              Output\obj\project\ble_peripheral\strong_symbol.o (thread_btstack_create)
..\..\libs\cpu\libplatform.a(sys_hook.o)
                              ..\..\libs\cpu\libplatform.a(startup.o) (sys_hook_init)
..\..\libs\cpu\libplatform.a(thread_driver.o)
                              ..\..\libs\cpu\libplatform.a(startup.o) (thread_driver_entry)
..\..\libs\cpu\libplatform.a(pll.o)
                              ..\..\libs\cpu\libplatform.a(main.o) (pll0_disable)
..\..\libs\cpu\libplatform.a(pmu.o)
                              Output\obj\driver\driver_lowpwr.o (pmu_get_vddcore)
..\..\libs\cpu\libplatform.a(reset.o)
                              (_start)
..\..\libs\cpu\libplatform.a(context.o)
                              Output\obj\driver\driver_lowpwr.o (lp_sleep)
..\..\libs\cpu\libplatform.a(spiflash.o)
                              ..\..\libs\cpu\libplatform.a(reset.o) (spiflash_erase_patch_do)
..\..\libs\cpu\libplatform.a(debug.o)
                              ..\..\libs\cpu\libplatform.a(reset.o) (exception_isr)
..\..\libs\cpu\libplatform.a(fot_pack.o)
                              ..\..\libs\cpu\libplatform.a(os_flash.o) (ota_pack_is_update_success)
..\..\libs\cpu\libplatform.a(lock.o)
                              ..\..\libs\cpu\libplatform.a(main.o) (lock_init)
..\..\libs\cpu\libplatform.a(patch.o)
                              ..\..\libs\cpu\libplatform.a(main.o) (patch_init)
..\..\libs\cpu\libplatform.a(s_sys.o)
                              ..\..\libs\cpu\libplatform.a(startup.o) (dummy_func)
..\..\libs\cpu\libplatform.a(sleep.o)
                              Output\obj\driver\driver_lowpwr.o (lowpwr_sleep_sfr_save)
..\..\libs\cpu\libplatform.a(sys.o)
                              Output\obj\project\ble_peripheral\main.o (sys_rst_init)
..\..\libs\cpu\libplatform.a(sys_clk.o)
                              ..\..\libs\cpu\libplatform.a(audio_mic.o) (sys_clk_get_cur)
..\..\libs\cpu\libplatform.a(voltage_trim.o)
                              Output\obj\driver\driver_saradc.o (pmu_get_vbatdet)
..\..\libs\cpu\libplatform.a(weak_symbol.o)
                              ..\..\libs\cpu\libplatform.a(main.o) (xosc_24m_div_get)
..\..\libs\cpu\libplatform.a(bt.o)
                              ..\..\libs\cpu\libplatform.a(startup.o) (thread_btstack_entry)
..\..\libs\cpu\libplatform.a(freq_det.o)
                              ..\..\libs\cpu\libplatform.a(sys.o) (freq_det_init)
..\..\libs\ble\libbtstack.a(txpkt.o)
                              Output\obj\project\ble_peripheral\ble\ble_init.o (txpkt_init)
..\..\libs\ble\libbtstack.a(hci.o)
                              Output\obj\project\ble_peripheral\ble\ble_client.o (ble_get_scan_sta)
..\..\libs\ble\libbtstack.a(btstack_util.o)
                              ..\..\libs\ble\libbtstack.a(hci.o) (bd_addr_copy)
..\..\libs\ble\libbtstack.a(sm.o)
                              Output\obj\project\ble_peripheral\ble\ble_init.o (ble_sm_init)
..\..\libs\ble\libbtstack.a(le_device_db_memory.o)
                              ..\..\libs\ble\libbtstack.a(sm.o) (le_device_db_count)
..\..\libs\ble\libbtstack.a(gatt_server.o)
                              Output\obj\project\ble_peripheral\ble\ble_user_service.o (ble_notify_for_handle)
..\..\libs\ble\libbtstack.a(gatt_client.o)
                              Output\obj\project\ble_peripheral\ble\ble_client.o (att_client_register_handler)
..\..\libs\ble\libbtstack.a(att_server.o)
                              Output\obj\project\ble_peripheral\ble\ble_user_service.o (att_server_register_service_handler)
..\..\libs\ble\libbtstack.a(att_dispatch.o)
                              ..\..\libs\ble\libbtstack.a(gatt_client.o) (att_dispatch_register_client)
..\..\libs\ble\libbtstack.a(att_db.o)
                              ..\..\libs\ble\libbtstack.a(att_server.o) (att_set_db)
..\..\libs\ble\libbtstack.a(ad_parser.o)
                              Output\obj\project\ble_peripheral\ble\ble_client.o (ble_adv_report_info_analyse)
..\..\libs\ble\libbtstack.a(hci_transport_h3_controller.o)
                              ..\..\libs\ble\libbtstack.a(hci.o) (p_hci_transport)
..\..\libs\ble\libbtstack.a(hci_transport_dummy.o)
                              ..\..\libs\ble\libbtstack.a(hci_transport_h3_controller.o) (hci_transport_setup)
..\..\libs\ble\libbtstack.a(btstack_hal.o)
                              ..\..\libs\ble\libbtstack.a(hci_transport_h3_controller.o) (hal_uart_dma_init)
..\..\libs\ble\libbtstack.a(btstack_api.o)
                              Output\obj\project\ble_peripheral\ble\ble_init.o (btstack_init)
..\..\libs\ble\libbtstack.a(ble_api.o)
                              ..\..\libs\ble\libbtstack.a(hci.o) (ble_msg_free_prepare)
..\..\libs\ble\libbtstack.a(txpkt.o)
                              ..\..\libs\ble\libbtstack.a(txpkt.o) (txpkt_mem_init)
..\..\libs\ble\libbtstack.a(platform.o)
                              ..\..\libs\ble\libbtstack.a(hci_transport_h3_controller.o) (dummy_void)
..\..\libs\ble\libbtstack.a(rf.o)
                              ..\..\libs\ble\libbtstack.a(btstack_api.o) (rf_single_tone_enter)
..\..\libs\ble\libbtstack.a(hct_proc.o)
                              ..\..\libs\ble\libbtstack.a(hci.o) (hct_register_handler_evt)
..\..\libs\ble\libbtstack.a(hct.o)
                              ..\..\libs\ble\libbtstack.a(hci.o) (hci_cmd_send_2_controller)
..\..\libs\ble\libbtstack.a(mgr_hci.o)
                              ..\..\libs\ble\libbtstack.a(hci.o) (hci_le_rd_buff_size)
..\..\libs\ble\libbtstack.a(mgr.o)
                              ..\..\libs\ble\libbtstack.a(mgr_hci.o) (mgr_cmd_cmp_send)
..\..\libs\ble\libbtstack.a(ll_adv.o)
                              ..\..\libs\ble\libbtstack.a(mgr_hci.o) (hci_le_set_adv_param_cmd_func)
..\..\libs\ble\libbtstack.a(ll_con_upd.o)
                              ..\..\libs\ble\libbtstack.a(ll_adv.o) (ll_con_move_cb)
..\..\libs\ble\libbtstack.a(ll_cntl.o)
                              ..\..\libs\ble\libbtstack.a(ll_con_upd.o) (ll_cntl_send)
..\..\libs\ble\libbtstack.a(ll_clk_acc.o)
                              ..\..\libs\ble\libbtstack.a(ll_cntl.o) (ll_clk_acc_req_func)
..\..\libs\ble\libbtstack.a(ll_chmap_upd.o)
                              ..\..\libs\ble\libbtstack.a(ll_cntl.o) (ll_channel_map_ind_func)
..\..\libs\ble\libbtstack.a(ll.o)
                              ..\..\libs\ble\libbtstack.a(ll_adv.o) (ll_start)
..\..\libs\ble\libbtstack.a(ble_hal.o)
                              ..\..\libs\ble\libbtstack.a(mgr.o) (ble_ch_assess_data_get)
..\..\libs\ble\libbtstack.a(ble_con.o)
                              ..\..\libs\ble\libbtstack.a(ll.o) (ble_con_start)
..\..\libs\ble\libbtstack.a(ble_adv.o)
                              ..\..\libs\ble\libbtstack.a(ble_hal.o) (ble_adv_init)
..\..\libs\ble\libbtstack.a(ble_buf.o)
                              ..\..\libs\ble\libbtstack.a(hct.o) (ble_buf_acl_tx_alloc)
..\..\libs\ble\libbtstack.a(bb_utils.o)
                              ..\..\libs\ble\libbtstack.a(ll.o) (bb_rate_to_phy)
..\..\libs\ble\libbtstack.a(bb_int.o)
                              ..\..\libs\ble\libbtstack.a(btstack_api.o) (bb_sleep_init)
..\..\libs\ble\libbtstack.a(bb.o)
                              ..\..\libs\ble\libbtstack.a(btstack_api.o) (bb_var_init)
..\..\libs\ble\libbtstack.a(periph.o)
                              ..\..\libs\ble\libbtstack.a(btstack_hal.o) (bt_uart_init)
..\..\libs\ble\libbtstack.a(extern_ble.o)
                              ..\..\libs\ble\libbtstack.a(le_device_db_memory.o) (ble_sync_link_info)
..\..\libs\ble\libbtstack.a(l2cap.o)
                              ..\..\libs\ble\libbtstack.a(btstack_api.o) (gap_request_connection_parameter_update)
..\..\libs\ble\libbtstack.a(hci_dump.o)
                              ..\..\libs\ble\libbtstack.a(btstack_api.o) (hci_dump_open)
..\..\libs\ble\libbtstack.a(hci_cmd.o)
                              ..\..\libs\ble\libbtstack.a(hci.o) (hci_cmd_create_from_template)
..\..\libs\ble\libbtstack.a(btstack_run_loop.o)
                              ..\..\libs\ble\libbtstack.a(sm.o) (btstack_run_loop_set_timer_handler)
..\..\libs\ble\libbtstack.a(btstack_memory.o)
                              ..\..\libs\ble\libbtstack.a(gatt_client.o) (btstack_memory_gatt_client_get)
..\..\libs\ble\libbtstack.a(btstack_main.o)
                              ..\..\libs\ble\libbtstack.a(ble_api.o) (btstack_ble_set_init_callback)
..\..\libs\ble\libbtstack.a(nanos.o)
                              ..\..\libs\ble\libbtstack.a(bb.o) (nanos_init)
..\..\libs\ble\libbtstack.a(bb_sche.o)
                              ..\..\libs\ble\libbtstack.a(bb.o) (bb_sche_init)
..\..\libs\ble\libbtstack.a(patch.o)
                              ..\..\libs\ble\libbtstack.a(bb.o) (bb_patch_dummy)
..\..\libs\ble\libbtstack.a(bb_dbg.o)
                              ..\..\libs\ble\libbtstack.a(bb.o) (bb_dbg_init)
..\..\libs\ble\libbtstack.a(bb_clk.o)
                              ..\..\libs\ble\libbtstack.a(bb.o) (bb_lpcycles_2_hus_hook)
..\..\libs\ble\libbtstack.a(aes.o)
                              ..\..\libs\ble\libbtstack.a(bb.o) (aes_init)
..\..\libs\ble\libbtstack.a(extern.o)
                              ..\..\libs\ble\libbtstack.a(bb_int.o) (sys_sleep_cb)
..\..\libs\ble\libbtstack.a(vs.o)
                              ..\..\libs\ble\libbtstack.a(bb.o) (vs_init)
..\..\libs\ble\libbtstack.a(rf_mate.o)
                              ..\..\libs\ble\libbtstack.a(rf.o) (rfphy_sw_ctrl)
..\..\libs\ble\libbtstack.a(ble_hook.o)
                              ..\..\libs\ble\libbtstack.a(ble_hal.o) (ble_hal_init_hook)
..\..\libs\ble\libbtstack.a(adv_hook.o)
                              ..\..\libs\ble\libbtstack.a(ll_adv.o) (ble_adv_end_ind_hook)
..\..\libs\ble\libbtstack.a(hct_tl.o)
                              ..\..\libs\ble\libbtstack.a(bb_int.o) (hct_queue_is_empty)
..\..\libs\ble\libbtstack.a(hct_msg.o)
                              ..\..\libs\ble\libbtstack.a(hct.o) (hci_look_for_cmd_desc)
..\..\libs\ble\libbtstack.a(mgr_test.o)
                              ..\..\libs\ble\libbtstack.a(mgr_hci.o) (hci_le_rx_test_v1_cmd_func)
..\..\libs\ble\libbtstack.a(mgr_proc.o)
                              ..\..\libs\ble\libbtstack.a(mgr.o) (mgr_msg_env)
..\..\libs\ble\libbtstack.a(ll_version.o)
                              ..\..\libs\ble\libbtstack.a(ll_cntl.o) (ll_version_ind_func)
..\..\libs\ble\libbtstack.a(ll_tbox_prod_test.o)
                              ..\..\libs\ble\libbtstack.a(ll_cntl.o) (ll_tbox_prod_test_req_func)
..\..\libs\ble\libbtstack.a(ll_tbox_freq_cal.o)
                              ..\..\libs\ble\libbtstack.a(ll_cntl.o) (ll_tbox_freq_cal_req_func)
..\..\libs\ble\libbtstack.a(ll_tbox_feature.o)
                              ..\..\libs\ble\libbtstack.a(ll_cntl.o) (ll_tbox_feat_req_func)
..\..\libs\ble\libbtstack.a(ll_proc.o)
                              ..\..\libs\ble\libbtstack.a(ll_con_upd.o) (ll_cmd_stat_send)
..\..\libs\ble\libbtstack.a(ll_phy_upd.o)
                              ..\..\libs\ble\libbtstack.a(ll_cntl.o) (ll_phy_req_func)
..\..\libs\ble\libbtstack.a(ll_length.o)
                              ..\..\libs\ble\libbtstack.a(ll_cntl.o) (ll_length_req_func)
..\..\libs\ble\libbtstack.a(ll_feature.o)
                              ..\..\libs\ble\libbtstack.a(ll_cntl.o) (ll_feature_req_func)
..\..\libs\ble\libbtstack.a(ll_encrypt.o)
                              ..\..\libs\ble\libbtstack.a(ll_cntl.o) (ll_pause_enc_req_func)
..\..\libs\ble\libbtstack.a(ll_disconnect.o)
                              ..\..\libs\ble\libbtstack.a(ll_proc.o) (ll_stopped_ind_func)
..\..\libs\ble\libbtstack.a(ble_test.o)
                              ..\..\libs\ble\libbtstack.a(mgr_test.o) (ble_test_start)
..\..\libs\ble\libbtstack.a(ble.o)
                              ..\..\libs\ble\libbtstack.a(bb.o) (ble_var_init)
..\..\libs\ble\libbtstack.a(bb_sleep.o)
                              ..\..\libs\ble\libbtstack.a(bb_int.o) (bb_sleep_suspend)
..\..\libs\ble\libbtstack.a(bb_alarm.o)
                              ..\..\libs\ble\libbtstack.a(bb.o) (bb_timer_init)
..\..\libs\ble\libbtstack.a(l2cap_signaling.o)
                              ..\..\libs\ble\libbtstack.a(l2cap.o) (l2cap_create_signaling_le)
..\..\libs\ble\libbtstack.a(btstack_memory_pool.o)
                              ..\..\libs\ble\libbtstack.a(btstack_memory.o) (btstack_memory_pool_get)
..\..\libs\ble\libbtstack.a(patch_asm.o)
                              ..\..\libs\ble\libbtstack.a(patch.o) (bb_patch2)
..\..\libs\ble\libbtstack.a(vs_proc.o)
                              ..\..\libs\ble\libbtstack.a(vs.o) (vs_env)
..\..\libs\ble\libbtstack.a(vs_fcc.o)
                              ..\..\libs\ble\libbtstack.a(vs_proc.o) (vs_fcc_test_cmd)
..\..\libs\ble\libbtstack.a(ble_sync.o)
                              ..\..\libs\ble\libbtstack.a(ble.o) (ble_get_sync_var)
..\..\libs\ble\libbtstack.a(ble_scan.o)
                              ..\..\libs\ble\libbtstack.a(ble.o) (ble_get_scan_var)
..\..\libs\ble\libbtstack.a(ble_init.o)
                              ..\..\libs\ble\libbtstack.a(ble.o) (ble_get_init_var)

Allocating common symbols
Common symbol       size              file

tmr5ms_cnt          0x2               Output\obj\project\ble_peripheral\bsp\bsp_sys.o
ble_user_cb         0x304             Output\obj\project\ble_peripheral\ble\ble_user_service.o
server_info         0x2a8             Output\obj\project\ble_peripheral\ble\ble_client.o
REPORT_TYPE         0x4               Output\obj\project\ble_peripheral\ble\ble_client.o
xcfg_cb             0x33              Output\obj\project\ble_peripheral\bsp\bsp_sys.o

Discarded input sections

 .text          0x0000000000000000        0x0 Output\obj\driver\driver_clk.o
 .data          0x0000000000000000        0x0 Output\obj\driver\driver_clk.o
 .bss           0x0000000000000000        0x0 Output\obj\driver\driver_clk.o
 .text.clk_gate1_cmd
                0x0000000000000000       0x16 Output\obj\driver\driver_clk.o
 .text.clk_gate2_cmd
                0x0000000000000000       0x16 Output\obj\driver\driver_clk.o
 .text.clk_clkout_set
                0x0000000000000000       0x4e Output\obj\driver\driver_clk.o
 .text.clk_clk32k_rtc_set
                0x0000000000000000       0x28 Output\obj\driver\driver_clk.o
 .text.clk_clk32k_rtc_get
                0x0000000000000000       0x46 Output\obj\driver\driver_clk.o
 .text.clk_hsut0_clk_set
                0x0000000000000000       0x18 Output\obj\driver\driver_clk.o
 .text.clk_hsut0_clk_get
                0x0000000000000000       0x1e Output\obj\driver\driver_clk.o
 .text.clk_saradc_clk_set
                0x0000000000000000       0x18 Output\obj\driver\driver_clk.o
 .text.clk_saradc_clk_get
                0x0000000000000000       0x3e Output\obj\driver\driver_clk.o
 .text.clk_clk2m_ks_set
                0x0000000000000000       0x2e Output\obj\driver\driver_clk.o
 .text.clk_clk2m_ks_get
                0x0000000000000000       0x3e Output\obj\driver\driver_clk.o
 .text.clk_ledc_clk_set
                0x0000000000000000       0x18 Output\obj\driver\driver_clk.o
 .text.clk_ledc_clk_get
                0x0000000000000000       0x24 Output\obj\driver\driver_clk.o
 .text.clk_irtx_mod_clk_set
                0x0000000000000000       0x16 Output\obj\driver\driver_clk.o
 .text.clk_irtx_mod_clk_get
                0x0000000000000000       0x24 Output\obj\driver\driver_clk.o
 .text.clk_irrx_clk_set
                0x0000000000000000       0x16 Output\obj\driver\driver_clk.o
 .text.clk_irtx_clk_set
                0x0000000000000000        0x8 Output\obj\driver\driver_clk.o
 .text.clk_irrx_clk_get
                0x0000000000000000       0x34 Output\obj\driver\driver_clk.o
 .text.clk_irtx_clk_get
                0x0000000000000000        0x8 Output\obj\driver\driver_clk.o
 .rodata        0x0000000000000000       0x20 Output\obj\driver\driver_clk.o
 .text          0x0000000000000000        0x0 Output\obj\driver\driver_gpio.o
 .data          0x0000000000000000        0x0 Output\obj\driver\driver_gpio.o
 .bss           0x0000000000000000        0x0 Output\obj\driver\driver_gpio.o
 .text.gpio_deinit
                0x0000000000000000       0x10 Output\obj\driver\driver_gpio.o
 .com_periph.gpio.dir
                0x0000000000000000       0x12 Output\obj\driver\driver_gpio.o
 .com_periph.gpio.set
                0x0000000000000000        0x4 Output\obj\driver\driver_gpio.o
 .com_periph.gpio.reset
                0x0000000000000000        0x4 Output\obj\driver\driver_gpio.o
 .com_periph.gpio.write
                0x0000000000000000        0x4 Output\obj\driver\driver_gpio.o
 .com_periph.gpio.toggle
                0x0000000000000000        0x8 Output\obj\driver\driver_gpio.o
 .com_periph.gpio.read_data
                0x0000000000000000        0x8 Output\obj\driver\driver_gpio.o
 .com_periph.gpio.read_bit
                0x0000000000000000        0xa Output\obj\driver\driver_gpio.o
 .text.gpio_func_mapping_clear
                0x0000000000000000       0x7e Output\obj\driver\driver_gpio.o
 .com_periph.wk0.read_bit
                0x0000000000000000        0xa Output\obj\driver\driver_gpio.o
 .text.gpio_edge_capture_config_custom
                0x0000000000000000      0x116 Output\obj\driver\driver_gpio.o
 .text.gpio_set_reset_pin
                0x0000000000000000       0x4c Output\obj\driver\driver_gpio.o
 .text.gpio_get_edge_pin
                0x0000000000000000        0x8 Output\obj\driver\driver_gpio.o
 .com_periph.gpio.rise.src
                0x0000000000000000        0x8 Output\obj\driver\driver_gpio.o
 .com_periph.gpio.fall.src
                0x0000000000000000        0xc Output\obj\driver\driver_gpio.o
 .com_periph.gpio.pending_clr
                0x0000000000000000        0xc Output\obj\driver\driver_gpio.o
 .com_periph.gpio.pending_is
                0x0000000000000000       0x12 Output\obj\driver\driver_gpio.o
 .text.gpio_edge_pic_config
                0x0000000000000000       0x54 Output\obj\driver\driver_gpio.o
 .text          0x0000000000000000        0x0 Output\obj\driver\driver_hsuart.o
 .data          0x0000000000000000        0x0 Output\obj\driver\driver_hsuart.o
 .bss           0x0000000000000000        0x0 Output\obj\driver\driver_hsuart.o
 .text.hsuart_init
                0x0000000000000000       0xa0 Output\obj\driver\driver_hsuart.o
 .text.hsuart_deinit
                0x0000000000000000       0x14 Output\obj\driver\driver_hsuart.o
 .text.hsuart_cmd
                0x0000000000000000       0x16 Output\obj\driver\driver_hsuart.o
 .com_periph.hsuart.send
                0x0000000000000000       0x1a Output\obj\driver\driver_hsuart.o
 .com_periph.hsuart.recv
                0x0000000000000000        0xa Output\obj\driver\driver_hsuart.o
 .com_periph.hsuart.receive_data
                0x0000000000000000       0x44 Output\obj\driver\driver_hsuart.o
 .com_periph.hsuart.fifo_get
                0x0000000000000000        0xa Output\obj\driver\driver_hsuart.o
 .text.hsuart_clear_fifo_counter
                0x0000000000000000        0xe Output\obj\driver\driver_hsuart.o
 .text.hsuart_baud_config
                0x0000000000000000       0x2c Output\obj\driver\driver_hsuart.o
 .text.hsuart_pic_config
                0x0000000000000000       0x92 Output\obj\driver\driver_hsuart.o
 .com_periph.hsuart.get_flag
                0x0000000000000000       0x3e Output\obj\driver\driver_hsuart.o
 .com_periph.hsuart.clear
                0x0000000000000000       0x38 Output\obj\driver\driver_hsuart.o
 .text.hsuart_rx_idle_config
                0x0000000000000000       0x1e Output\obj\driver\driver_hsuart.o
 .com_periph.hsuart.dma
                0x0000000000000000       0x20 Output\obj\driver\driver_hsuart.o
 .com_periph.hsuart.stop
                0x0000000000000000       0x18 Output\obj\driver\driver_hsuart.o
 .com_periph.hsuart.hfc
                0x0000000000000000       0x32 Output\obj\driver\driver_hsuart.o
 .comment       0x0000000000000000       0x12 Output\obj\driver\driver_hsuart.o
 .text          0x0000000000000000        0x0 Output\obj\driver\driver_keyscan.o
 .data          0x0000000000000000        0x0 Output\obj\driver\driver_keyscan.o
 .bss           0x0000000000000000        0x0 Output\obj\driver\driver_keyscan.o
 .text.keyscan_init
                0x0000000000000000       0xde Output\obj\driver\driver_keyscan.o
 .text.keyscan_deinit
                0x0000000000000000        0xc Output\obj\driver\driver_keyscan.o
 .com_periph.keyscan.en_ctrl
                0x0000000000000000       0x16 Output\obj\driver\driver_keyscan.o
 .text.keyscan_pic_config
                0x0000000000000000       0x3a Output\obj\driver\driver_keyscan.o
 .com_periph.keyscan.flag
                0x0000000000000000       0x44 Output\obj\driver\driver_keyscan.o
 .com_periph.keyscan.query
                0x0000000000000000       0xca Output\obj\driver\driver_keyscan.o
 .com_periph.keyscan.lowpwr_mode
                0x0000000000000000        0xc Output\obj\driver\driver_keyscan.o
 .comment       0x0000000000000000       0x12 Output\obj\driver\driver_keyscan.o
 .text          0x0000000000000000        0x0 Output\obj\driver\driver_ledc.o
 .data          0x0000000000000000        0x0 Output\obj\driver\driver_ledc.o
 .bss           0x0000000000000000        0x0 Output\obj\driver\driver_ledc.o
 .text.ledc_init
                0x0000000000000000       0x3c Output\obj\driver\driver_ledc.o
 .text.ledc_timing_init
                0x0000000000000000       0x5c Output\obj\driver\driver_ledc.o
 .text.ledc_deinit
                0x0000000000000000       0x20 Output\obj\driver\driver_ledc.o
 .text.ledc_cmd
                0x0000000000000000       0x16 Output\obj\driver\driver_ledc.o
 .com_periph.ledc.transport
                0x0000000000000000       0x20 Output\obj\driver\driver_ledc.o
 .text.ledc_pic_config
                0x0000000000000000       0x44 Output\obj\driver\driver_ledc.o
 .com_periph.ledc.flag
                0x0000000000000000       0x42 Output\obj\driver\driver_ledc.o
 .text.ledc_set_frame_length
                0x0000000000000000        0xe Output\obj\driver\driver_ledc.o
 .text.ledc_set_loop_number
                0x0000000000000000        0xc Output\obj\driver\driver_ledc.o
 .text.ledc_get_frame_length
                0x0000000000000000       0x10 Output\obj\driver\driver_ledc.o
 .text.ledc_get_loop_number
                0x0000000000000000        0xc Output\obj\driver\driver_ledc.o
 .comment       0x0000000000000000       0x12 Output\obj\driver\driver_ledc.o
 .text          0x0000000000000000        0x0 Output\obj\driver\driver_lowpwr.o
 .data          0x0000000000000000        0x0 Output\obj\driver\driver_lowpwr.o
 .bss           0x0000000000000000       0x5c Output\obj\driver\driver_lowpwr.o
 .com_sleep.sys
                0x0000000000000000       0x8e Output\obj\driver\driver_lowpwr.o
 .com_sleep.lp_proc
                0x0000000000000000       0xc6 Output\obj\driver\driver_lowpwr.o
 .com_sleep.lp_wakeup
                0x0000000000000000      0x146 Output\obj\driver\driver_lowpwr.o
 .text.lowpwr_clr_wakeup_pending
                0x0000000000000000       0x1c Output\obj\driver\driver_lowpwr.o
 .text.lowpwr_gpio_wakeup_config_custom
                0x0000000000000000       0x4a Output\obj\driver\driver_lowpwr.o
 .text.lowpwr_wakeup_source_enable
                0x0000000000000000       0x7c Output\obj\driver\driver_lowpwr.o
 .text.lowpwr_wakeup_source_disable
                0x0000000000000000       0x92 Output\obj\driver\driver_lowpwr.o
 .com_pwroff.mode1
                0x0000000000000000       0xba Output\obj\driver\driver_lowpwr.o
 .com_sleep.sfr_save
                0x0000000000000000        0x2 Output\obj\driver\driver_lowpwr.o
 .com_sleep.sfr_resume
                0x0000000000000000        0x2 Output\obj\driver\driver_lowpwr.o
 .com_sleep.proc_do
                0x0000000000000000       0xb4 Output\obj\driver\driver_lowpwr.o
 .com_sleep.sleep
                0x0000000000000000        0x8 Output\obj\driver\driver_lowpwr.o
 .text          0x0000000000000000        0x0 Output\obj\driver\driver_rtc.o
 .data          0x0000000000000000        0x0 Output\obj\driver\driver_rtc.o
 .bss           0x0000000000000000        0x0 Output\obj\driver\driver_rtc.o
 .com_periph.rtc.cnt_set
                0x0000000000000000        0x8 Output\obj\driver\driver_rtc.o
 .com_periph.rtc.cnt_get
                0x0000000000000000        0x8 Output\obj\driver\driver_rtc.o
 .com_periph.rtc.alarm_set
                0x0000000000000000        0x8 Output\obj\driver\driver_rtc.o
 .com_periph.rtc.alarm_get
                0x0000000000000000        0x8 Output\obj\driver\driver_rtc.o
 .text.rtc_prescale_set
                0x0000000000000000       0x16 Output\obj\driver\driver_rtc.o
 .text.rtc_prescale_get
                0x0000000000000000        0xc Output\obj\driver\driver_rtc.o
 .text.rtc_pic_config
                0x0000000000000000       0x90 Output\obj\driver\driver_rtc.o
 .com_periph.rct.get
                0x0000000000000000       0x36 Output\obj\driver\driver_rtc.o
 .com_periph.rct.clear
                0x0000000000000000       0x1a Output\obj\driver\driver_rtc.o
 .comment       0x0000000000000000       0x12 Output\obj\driver\driver_rtc.o
 .text          0x0000000000000000        0x0 Output\obj\driver\driver_saradc.o
 .data          0x0000000000000000        0x0 Output\obj\driver\driver_saradc.o
 .bss           0x0000000000000000        0x0 Output\obj\driver\driver_saradc.o
 .text.saradc_mic_init
                0x0000000000000000       0x64 Output\obj\driver\driver_saradc.o
 .text.saradc_mic_cmd
                0x0000000000000000       0x1a Output\obj\driver\driver_saradc.o
 .text.saradc_mic_dma_cmd
                0x0000000000000000       0x38 Output\obj\driver\driver_saradc.o
 .text.saradc_init
                0x0000000000000000       0x88 Output\obj\driver\driver_saradc.o
 .text.saradc_add_channel
                0x0000000000000000      0x12a Output\obj\driver\driver_saradc.o
 .text.saradc_remove_channel
                0x0000000000000000       0xac Output\obj\driver\driver_saradc.o
 .text.saradc_cmd
                0x0000000000000000       0x16 Output\obj\driver\driver_saradc.o
 .com_periph.saradc.kick
                0x0000000000000000       0x2e Output\obj\driver\driver_saradc.o
 .text.saradc_set_baud
                0x0000000000000000       0x2e Output\obj\driver\driver_saradc.o
 .text.saradc_pic_config
                0x0000000000000000       0x70 Output\obj\driver\driver_saradc.o
 .com_periph.saradc.get
                0x0000000000000000       0x3a Output\obj\driver\driver_saradc.o
 .com_periph.saradc.clear
                0x0000000000000000       0x2e Output\obj\driver\driver_saradc.o
 .com_text.saradc.done
                0x0000000000000000       0x34 Output\obj\driver\driver_saradc.o
 .com_periph.saradc.get_data
                0x0000000000000000       0xa0 Output\obj\driver\driver_saradc.o
 .text          0x0000000000000000        0x0 Output\obj\driver\driver_spi.o
 .data          0x0000000000000000        0x0 Output\obj\driver\driver_spi.o
 .bss           0x0000000000000000        0x0 Output\obj\driver\driver_spi.o
 .text.spi_init
                0x0000000000000000       0x50 Output\obj\driver\driver_spi.o
 .text.spi_deinit
                0x0000000000000000       0x1c Output\obj\driver\driver_spi.o
 .text.spi_cmd  0x0000000000000000       0x10 Output\obj\driver\driver_spi.o
 .text.spi_dir_sel
                0x0000000000000000       0x16 Output\obj\driver\driver_spi.o
 .text.spi_it_cmd
                0x0000000000000000       0x12 Output\obj\driver\driver_spi.o
 .text.spi_lfsr_cmd
                0x0000000000000000       0x12 Output\obj\driver\driver_spi.o
 .text.spi_multi_bit_bus_cmd
                0x0000000000000000       0x12 Output\obj\driver\driver_spi.o
 .text.spi_hold_rx_cmd
                0x0000000000000000       0x12 Output\obj\driver\driver_spi.o
 .text.spi_hold_tx_cmd
                0x0000000000000000       0x12 Output\obj\driver\driver_spi.o
 .text.spi_soft_hold_cmd
                0x0000000000000000       0x12 Output\obj\driver\driver_spi.o
 .com_periph.spi.get
                0x0000000000000000        0xa Output\obj\driver\driver_spi.o
 .com_periph.spi.clear
                0x0000000000000000        0x8 Output\obj\driver\driver_spi.o
 .text.spi_set_dma_cnt
                0x0000000000000000        0x4 Output\obj\driver\driver_spi.o
 .text.spi_set_dma_addr
                0x0000000000000000        0x4 Output\obj\driver\driver_spi.o
 .text.spi_receive_data
                0x0000000000000000        0x8 Output\obj\driver\driver_spi.o
 .text.spi_send_data
                0x0000000000000000        0x4 Output\obj\driver\driver_spi.o
 .comment       0x0000000000000000       0x12 Output\obj\driver\driver_spi.o
 .text          0x0000000000000000        0x0 Output\obj\driver\driver_tmr.o
 .data          0x0000000000000000        0x0 Output\obj\driver\driver_tmr.o
 .bss           0x0000000000000000        0x0 Output\obj\driver\driver_tmr.o
 .text.tmr_base_init
                0x0000000000000000       0x50 Output\obj\driver\driver_tmr.o
 .text.tmr_deinit
                0x0000000000000000       0x54 Output\obj\driver\driver_tmr.o
 .text.tmr_set_counter
                0x0000000000000000        0x4 Output\obj\driver\driver_tmr.o
 .text.tmr_set_period
                0x0000000000000000        0x4 Output\obj\driver\driver_tmr.o
 .text.tmr_get_counter
                0x0000000000000000        0x4 Output\obj\driver\driver_tmr.o
 .text.tmr_get_period
                0x0000000000000000        0x4 Output\obj\driver\driver_tmr.o
 .text.tmr_cmd  0x0000000000000000       0x10 Output\obj\driver\driver_tmr.o
 .text.tmr_get_capture
                0x0000000000000000       0x1c Output\obj\driver\driver_tmr.o
 .text.tmr_pic_config
                0x0000000000000000       0x78 Output\obj\driver\driver_tmr.o
 .com_periph.tmr.get
                0x0000000000000000       0x52 Output\obj\driver\driver_tmr.o
 .com_periph.tmr.clear
                0x0000000000000000       0x3a Output\obj\driver\driver_tmr.o
 .comment       0x0000000000000000       0x12 Output\obj\driver\driver_tmr.o
 .text          0x0000000000000000        0x0 Output\obj\driver\driver_uart.o
 .data          0x0000000000000000        0x0 Output\obj\driver\driver_uart.o
 .bss           0x0000000000000000        0x0 Output\obj\driver\driver_uart.o
 .text.uart_deinit
                0x0000000000000000        0xe Output\obj\driver\driver_uart.o
 .text.uart_baud_config
                0x0000000000000000       0x42 Output\obj\driver\driver_uart.o
 .text          0x0000000000000000        0x0 Output\obj\driver\driver_wdt.o
 .data          0x0000000000000000        0x0 Output\obj\driver\driver_wdt.o
 .bss           0x0000000000000000        0x0 Output\obj\driver\driver_wdt.o
 .text.wdt_cmd  0x0000000000000000       0x18 Output\obj\driver\driver_wdt.o
 .text.wdt_reset_cmd
                0x0000000000000000       0x1e Output\obj\driver\driver_wdt.o
 .text.wdt_it_cmd
                0x0000000000000000       0x16 Output\obj\driver\driver_wdt.o
 .text.wdt_clk_select
                0x0000000000000000       0x1a Output\obj\driver\driver_wdt.o
 .text.wdt_time_select
                0x0000000000000000       0x1a Output\obj\driver\driver_wdt.o
 .text.wdt_get_flag
                0x0000000000000000        0x8 Output\obj\driver\driver_wdt.o
 .text.wdt_clear
                0x0000000000000000        0xe Output\obj\driver\driver_wdt.o
 .comment       0x0000000000000000       0x12 Output\obj\driver\driver_wdt.o
 .text          0x0000000000000000        0x0 Output\obj\project\ble_peripheral\app\func.o
 .data          0x0000000000000000        0x0 Output\obj\project\ble_peripheral\app\func.o
 .bss           0x0000000000000000        0x0 Output\obj\project\ble_peripheral\app\func.o
 .text          0x0000000000000000        0x0 Output\obj\project\ble_peripheral\app\func_bt.o
 .data          0x0000000000000000        0x0 Output\obj\project\ble_peripheral\app\func_bt.o
 .bss           0x0000000000000000        0x0 Output\obj\project\ble_peripheral\app\func_bt.o
 .text          0x0000000000000000        0x0 Output\obj\project\ble_peripheral\app\func_idle.o
 .data          0x0000000000000000        0x0 Output\obj\project\ble_peripheral\app\func_idle.o
 .bss           0x0000000000000000        0x0 Output\obj\project\ble_peripheral\app\func_idle.o
 .text          0x0000000000000000        0x0 Output\obj\project\ble_peripheral\app\func_iodm.o
 .data          0x0000000000000000        0x0 Output\obj\project\ble_peripheral\app\func_iodm.o
 .bss           0x0000000000000000        0x0 Output\obj\project\ble_peripheral\app\func_iodm.o
 .comment       0x0000000000000000       0x12 Output\obj\project\ble_peripheral\app\func_iodm.o
 .text          0x0000000000000000        0x0 Output\obj\project\ble_peripheral\app\func_le_bqb_rf.o
 .data          0x0000000000000000        0x0 Output\obj\project\ble_peripheral\app\func_le_bqb_rf.o
 .bss           0x0000000000000000        0x0 Output\obj\project\ble_peripheral\app\func_le_bqb_rf.o
 .comment       0x0000000000000000       0x12 Output\obj\project\ble_peripheral\app\func_le_bqb_rf.o
 .text          0x0000000000000000        0x0 Output\obj\project\ble_peripheral\app\func_le_fcc.o
 .data          0x0000000000000000        0x0 Output\obj\project\ble_peripheral\app\func_le_fcc.o
 .bss           0x0000000000000000        0x0 Output\obj\project\ble_peripheral\app\func_le_fcc.o
 .comment       0x0000000000000000       0x12 Output\obj\project\ble_peripheral\app\func_le_fcc.o
 .text          0x0000000000000000        0x0 Output\obj\project\ble_peripheral\app\func_lowpwr.o
 .data          0x0000000000000000        0x0 Output\obj\project\ble_peripheral\app\func_lowpwr.o
 .bss           0x0000000000000000        0x0 Output\obj\project\ble_peripheral\app\func_lowpwr.o
 .text          0x0000000000000000        0x0 Output\obj\project\ble_peripheral\app\func_tbox.o
 .data          0x0000000000000000        0x0 Output\obj\project\ble_peripheral\app\func_tbox.o
 .bss           0x0000000000000000        0x0 Output\obj\project\ble_peripheral\app\func_tbox.o
 .comment       0x0000000000000000       0x12 Output\obj\project\ble_peripheral\app\func_tbox.o
 .text          0x0000000000000000        0x0 Output\obj\project\ble_peripheral\ble\ble_adv.o
 .data          0x0000000000000000        0x0 Output\obj\project\ble_peripheral\ble\ble_adv.o
 .bss           0x0000000000000000        0x0 Output\obj\project\ble_peripheral\ble\ble_adv.o
 .rodata.scan   0x0000000000000000        0x0 Output\obj\project\ble_peripheral\ble\ble_adv.o
 .text          0x0000000000000000        0x0 Output\obj\project\ble_peripheral\ble\ble_alarm.o
 .data          0x0000000000000000        0x0 Output\obj\project\ble_peripheral\ble\ble_alarm.o
 .bss           0x0000000000000000        0x0 Output\obj\project\ble_peripheral\ble\ble_alarm.o
 .comment       0x0000000000000000       0x12 Output\obj\project\ble_peripheral\ble\ble_alarm.o
 .text          0x0000000000000000        0x0 Output\obj\project\ble_peripheral\ble\ble_client.o
 .data          0x0000000000000000        0x0 Output\obj\project\ble_peripheral\ble\ble_client.o
 .bss           0x0000000000000000       0x10 Output\obj\project\ble_peripheral\ble\ble_client.o
 .text.ble_att_read_callback
                0x0000000000000000        0x4 Output\obj\project\ble_peripheral\ble\ble_client.o
 .text.ble_client_event_callback
                0x0000000000000000      0x286 Output\obj\project\ble_peripheral\ble\ble_client.o
 .text.ble_client_notify_callback
                0x0000000000000000       0x1e Output\obj\project\ble_peripheral\ble\ble_client.o
 .text.ble_client_init
                0x0000000000000000       0x32 Output\obj\project\ble_peripheral\ble\ble_client.o
 .text.ble_scan_en_test
                0x0000000000000000       0x32 Output\obj\project\ble_peripheral\ble\ble_client.o
 .text.ble_write_test
                0x0000000000000000       0x72 Output\obj\project\ble_peripheral\ble\ble_client.o
 .text.ble_write_to_server
                0x0000000000000000       0x54 Output\obj\project\ble_peripheral\ble\ble_client.o
 .text.ble_read_test
                0x0000000000000000       0x5a Output\obj\project\ble_peripheral\ble\ble_client.o
 .rodata        0x0000000000000000       0x14 Output\obj\project\ble_peripheral\ble\ble_client.o
 .sbss          0x0000000000000000        0x4 Output\obj\project\ble_peripheral\ble\ble_client.o
 .sdata         0x0000000000000000        0x5 Output\obj\project\ble_peripheral\ble\ble_client.o
 .comment       0x0000000000000000       0x12 Output\obj\project\ble_peripheral\ble\ble_client.o
 COMMON         0x0000000000000000      0x2ac Output\obj\project\ble_peripheral\ble\ble_client.o
 .text          0x0000000000000000        0x0 Output\obj\project\ble_peripheral\ble\ble_fota_service.o
 .data          0x0000000000000000        0x0 Output\obj\project\ble_peripheral\ble\ble_fota_service.o
 .bss           0x0000000000000000        0x0 Output\obj\project\ble_peripheral\ble\ble_fota_service.o
 .comment       0x0000000000000000       0x12 Output\obj\project\ble_peripheral\ble\ble_fota_service.o
 .text          0x0000000000000000        0x0 Output\obj\project\ble_peripheral\ble\ble_init.o
 .data          0x0000000000000000        0x0 Output\obj\project\ble_peripheral\ble\ble_init.o
 .bss           0x0000000000000000        0x0 Output\obj\project\ble_peripheral\ble\ble_init.o
 .text.ble_get_work_mode
                0x0000000000000000        0xa Output\obj\project\ble_peripheral\ble\ble_init.o
 .text.ble_sm_param_init
                0x0000000000000000        0xe Output\obj\project\ble_peripheral\ble\ble_init.o
 .text.ble_scan_param_init
                0x0000000000000000       0x3c Output\obj\project\ble_peripheral\ble\ble_init.o
 .text.ble_central_init
                0x0000000000000000       0x3a Output\obj\project\ble_peripheral\ble\ble_init.o
 .text          0x0000000000000000        0x0 Output\obj\project\ble_peripheral\ble\ble_proc.o
 .data          0x0000000000000000        0x0 Output\obj\project\ble_peripheral\ble\ble_proc.o
 .bss           0x0000000000000000        0x0 Output\obj\project\ble_peripheral\ble\ble_proc.o
 .text.ble_enter_sleep_proc
                0x0000000000000000       0x7a Output\obj\project\ble_peripheral\ble\ble_proc.o
 .text.ble_exit_sleep_proc
                0x0000000000000000       0x52 Output\obj\project\ble_peripheral\ble\ble_proc.o
 .com_sleep.ble.sleep
                0x0000000000000000        0x8 Output\obj\project\ble_peripheral\ble\ble_proc.o
 .sbss          0x0000000000000000        0x8 Output\obj\project\ble_peripheral\ble\ble_proc.o
 .text          0x0000000000000000        0x0 Output\obj\project\ble_peripheral\ble\ble_profile.o
 .data          0x0000000000000000        0x0 Output\obj\project\ble_peripheral\ble\ble_profile.o
 .bss           0x0000000000000000        0x0 Output\obj\project\ble_peripheral\ble\ble_profile.o
 .text          0x0000000000000000        0x0 Output\obj\project\ble_peripheral\ble\ble_service.o
 .data          0x0000000000000000        0x0 Output\obj\project\ble_peripheral\ble\ble_service.o
 .bss           0x0000000000000000        0x0 Output\obj\project\ble_peripheral\ble\ble_service.o
 .text          0x0000000000000000        0x0 Output\obj\project\ble_peripheral\ble\ble_user_service.o
 .data          0x0000000000000000        0x0 Output\obj\project\ble_peripheral\ble\ble_user_service.o
 .com_sleep.ble.sleep
                0x0000000000000000        0xa Output\obj\project\ble_peripheral\ble\ble_user_service.o
 .text          0x0000000000000000        0x0 Output\obj\project\ble_peripheral\bsp\bsp_huart.o
 .data          0x0000000000000000        0x0 Output\obj\project\ble_peripheral\bsp\bsp_huart.o
 .bss           0x0000000000000000        0x0 Output\obj\project\ble_peripheral\bsp\bsp_huart.o
 .comment       0x0000000000000000       0x12 Output\obj\project\ble_peripheral\bsp\bsp_huart.o
 .text          0x0000000000000000        0x0 Output\obj\project\ble_peripheral\bsp\bsp_huart_iodm.o
 .data          0x0000000000000000        0x0 Output\obj\project\ble_peripheral\bsp\bsp_huart_iodm.o
 .bss           0x0000000000000000        0x0 Output\obj\project\ble_peripheral\bsp\bsp_huart_iodm.o
 .comment       0x0000000000000000       0x12 Output\obj\project\ble_peripheral\bsp\bsp_huart_iodm.o
 .text          0x0000000000000000        0x0 Output\obj\project\ble_peripheral\bsp\bsp_io_key.o
 .data          0x0000000000000000        0x0 Output\obj\project\ble_peripheral\bsp\bsp_io_key.o
 .bss           0x0000000000000000        0x0 Output\obj\project\ble_peripheral\bsp\bsp_io_key.o
 .comment       0x0000000000000000       0x12 Output\obj\project\ble_peripheral\bsp\bsp_io_key.o
 .text          0x0000000000000000        0x0 Output\obj\project\ble_peripheral\bsp\bsp_key.o
 .data          0x0000000000000000        0x0 Output\obj\project\ble_peripheral\bsp\bsp_key.o
 .bss           0x0000000000000000        0x0 Output\obj\project\ble_peripheral\bsp\bsp_key.o
 .comment       0x0000000000000000       0x12 Output\obj\project\ble_peripheral\bsp\bsp_key.o
 .text          0x0000000000000000        0x0 Output\obj\project\ble_peripheral\bsp\bsp_param.o
 .data          0x0000000000000000        0x0 Output\obj\project\ble_peripheral\bsp\bsp_param.o
 .bss           0x0000000000000000        0x0 Output\obj\project\ble_peripheral\bsp\bsp_param.o
 .text.bsp.param.fota
                0x0000000000000000       0xa8 Output\obj\project\ble_peripheral\bsp\bsp_param.o
 .text          0x0000000000000000        0x0 Output\obj\project\ble_peripheral\bsp\bsp_saradc.o
 .data          0x0000000000000000        0x0 Output\obj\project\ble_peripheral\bsp\bsp_saradc.o
 .bss           0x0000000000000000        0x0 Output\obj\project\ble_peripheral\bsp\bsp_saradc.o
 .comment       0x0000000000000000       0x12 Output\obj\project\ble_peripheral\bsp\bsp_saradc.o
 .text          0x0000000000000000        0x0 Output\obj\project\ble_peripheral\bsp\bsp_saradc_key.o
 .data          0x0000000000000000        0x0 Output\obj\project\ble_peripheral\bsp\bsp_saradc_key.o
 .bss           0x0000000000000000        0x0 Output\obj\project\ble_peripheral\bsp\bsp_saradc_key.o
 .comment       0x0000000000000000       0x12 Output\obj\project\ble_peripheral\bsp\bsp_saradc_key.o
 .text          0x0000000000000000        0x0 Output\obj\project\ble_peripheral\bsp\bsp_saradc_tsen.o
 .data          0x0000000000000000        0x0 Output\obj\project\ble_peripheral\bsp\bsp_saradc_tsen.o
 .bss           0x0000000000000000        0x0 Output\obj\project\ble_peripheral\bsp\bsp_saradc_tsen.o
 .comment       0x0000000000000000       0x12 Output\obj\project\ble_peripheral\bsp\bsp_saradc_tsen.o
 .text          0x0000000000000000        0x0 Output\obj\project\ble_peripheral\bsp\bsp_saradc_vbat.o
 .data          0x0000000000000000        0x0 Output\obj\project\ble_peripheral\bsp\bsp_saradc_vbat.o
 .bss           0x0000000000000000        0x0 Output\obj\project\ble_peripheral\bsp\bsp_saradc_vbat.o
 .comment       0x0000000000000000       0x12 Output\obj\project\ble_peripheral\bsp\bsp_saradc_vbat.o
 .text          0x0000000000000000        0x0 Output\obj\project\ble_peripheral\bsp\bsp_sys.o
 .data          0x0000000000000000        0x0 Output\obj\project\ble_peripheral\bsp\bsp_sys.o
 .bss           0x0000000000000000        0x0 Output\obj\project\ble_peripheral\bsp\bsp_sys.o
 .text.power_on_check
                0x0000000000000000        0x2 Output\obj\project\ble_peripheral\bsp\bsp_sys.o
 .text.bsp_periph_init
                0x0000000000000000        0x2 Output\obj\project\ble_peripheral\bsp\bsp_sys.o
 .text          0x0000000000000000        0x0 Output\obj\project\ble_peripheral\bsp\bsp_uart_debug.o
 .data          0x0000000000000000        0x0 Output\obj\project\ble_peripheral\bsp\bsp_uart_debug.o
 .bss           0x0000000000000000        0x0 Output\obj\project\ble_peripheral\bsp\bsp_uart_debug.o
 .comment       0x0000000000000000       0x12 Output\obj\project\ble_peripheral\bsp\bsp_uart_debug.o
 .text          0x0000000000000000        0x0 Output\obj\project\ble_peripheral\bsp\bsp_uart_transfer.o
 .data          0x0000000000000000        0x0 Output\obj\project\ble_peripheral\bsp\bsp_uart_transfer.o
 .text.uart_cmd_buff_clear
                0x0000000000000000        0xa Output\obj\project\ble_peripheral\bsp\bsp_uart_transfer.o
 .text          0x0000000000000000        0x0 Output\obj\project\ble_peripheral\main.o
 .data          0x0000000000000000        0x0 Output\obj\project\ble_peripheral\main.o
 .bss           0x0000000000000000        0x0 Output\obj\project\ble_peripheral\main.o
 .text          0x0000000000000000        0x0 Output\obj\project\ble_peripheral\prod_test\iodm\prod_test_iodm.o
 .data          0x0000000000000000        0x0 Output\obj\project\ble_peripheral\prod_test\iodm\prod_test_iodm.o
 .bss           0x0000000000000000        0x0 Output\obj\project\ble_peripheral\prod_test\iodm\prod_test_iodm.o
 .comment       0x0000000000000000       0x12 Output\obj\project\ble_peripheral\prod_test\iodm\prod_test_iodm.o
 .text          0x0000000000000000        0x0 Output\obj\project\ble_peripheral\prod_test\prod_test.o
 .data          0x0000000000000000        0x0 Output\obj\project\ble_peripheral\prod_test\prod_test.o
 .bss           0x0000000000000000        0x0 Output\obj\project\ble_peripheral\prod_test\prod_test.o
 .text          0x0000000000000000        0x0 Output\obj\project\ble_peripheral\prod_test\tbox\prod_test_tbox.o
 .data          0x0000000000000000        0x0 Output\obj\project\ble_peripheral\prod_test\tbox\prod_test_tbox.o
 .bss           0x0000000000000000        0x0 Output\obj\project\ble_peripheral\prod_test\tbox\prod_test_tbox.o
 .comment       0x0000000000000000       0x12 Output\obj\project\ble_peripheral\prod_test\tbox\prod_test_tbox.o
 .text          0x0000000000000000        0x0 Output\obj\project\ble_peripheral\prod_test\tbox\tbox_key.o
 .data          0x0000000000000000        0x0 Output\obj\project\ble_peripheral\prod_test\tbox\tbox_key.o
 .bss           0x0000000000000000        0x0 Output\obj\project\ble_peripheral\prod_test\tbox\tbox_key.o
 .comment       0x0000000000000000       0x12 Output\obj\project\ble_peripheral\prod_test\tbox\tbox_key.o
 .text          0x0000000000000000        0x0 Output\obj\project\ble_peripheral\strong_ble.o
 .data          0x0000000000000000        0x0 Output\obj\project\ble_peripheral\strong_ble.o
 .bss           0x0000000000000000        0x0 Output\obj\project\ble_peripheral\strong_ble.o
 .text.ble_sm_client_event_do
                0x0000000000000000        0x2 Output\obj\project\ble_peripheral\strong_ble.o
 .text.ble_sm_send_security_req_time_get
                0x0000000000000000        0x6 Output\obj\project\ble_peripheral\strong_ble.o
 .text.ble_sm_always_accept_ltk_req
                0x0000000000000000        0x4 Output\obj\project\ble_peripheral\strong_ble.o
 .text.ble_sm_pairing_support
                0x0000000000000000        0x4 Output\obj\project\ble_peripheral\strong_ble.o
 .text          0x0000000000000000        0x0 Output\obj\project\ble_peripheral\strong_symbol.o
 .data          0x0000000000000000        0x0 Output\obj\project\ble_peripheral\strong_symbol.o
 .bss           0x0000000000000000        0x0 Output\obj\project\ble_peripheral\strong_symbol.o
 .com_text.timer
                0x0000000000000000        0x8 Output\obj\project\ble_peripheral\strong_symbol.o
 .text          0x0000000000000000        0x0 ..\..\libs\cpu\libplatform.a(audio_mic.o)
 .data          0x0000000000000000        0x0 ..\..\libs\cpu\libplatform.a(audio_mic.o)
 .bss           0x0000000000000000        0x0 ..\..\libs\cpu\libplatform.a(audio_mic.o)
 .text.audio_mic_get_mic_type
                0x0000000000000000        0xa ..\..\libs\cpu\libplatform.a(audio_mic.o)
 .text.audio_mic_get_mic_gain
                0x0000000000000000        0xa ..\..\libs\cpu\libplatform.a(audio_mic.o)
 .text.audio_mic_get_mic_trim
                0x0000000000000000        0xa ..\..\libs\cpu\libplatform.a(audio_mic.o)
 .text.audio_mic_pb10_pdpu
                0x0000000000000000       0x2e ..\..\libs\cpu\libplatform.a(audio_mic.o)
 .text.audio_mic_power
                0x0000000000000000      0x102 ..\..\libs\cpu\libplatform.a(audio_mic.o)
 .text.audio_mic_analog_init
                0x0000000000000000      0x2cc ..\..\libs\cpu\libplatform.a(audio_mic.o)
 .bss.audio_mic_param
                0x0000000000000000       0x18 ..\..\libs\cpu\libplatform.a(audio_mic.o)
 .comment       0x0000000000000000       0x13 ..\..\libs\cpu\libplatform.a(audio_mic.o)
 .riscv.attributes
                0x0000000000000000       0x32 ..\..\libs\cpu\libplatform.a(audio_mic.o)
 .text          0x0000000000000000        0x0 ..\..\libs\cpu\libplatform.a(audio_mic_trim.o)
 .data          0x0000000000000000        0x0 ..\..\libs\cpu\libplatform.a(audio_mic_trim.o)
 .bss           0x0000000000000000        0x0 ..\..\libs\cpu\libplatform.a(audio_mic_trim.o)
 .text.audio_mic_trim_sta_set
                0x0000000000000000        0xa ..\..\libs\cpu\libplatform.a(audio_mic_trim.o)
 .text.audio_mic_trim_sta_get
                0x0000000000000000        0xa ..\..\libs\cpu\libplatform.a(audio_mic_trim.o)
 .text.audio_mic_dbg
                0x0000000000000000       0x9e ..\..\libs\cpu\libplatform.a(audio_mic_trim.o)
 .text.audio_micdc_trim_step0_init
                0x0000000000000000       0x42 ..\..\libs\cpu\libplatform.a(audio_mic_trim.o)
 .text.audio_micdc_trim_step0_waiting
                0x0000000000000000       0x14 ..\..\libs\cpu\libplatform.a(audio_mic_trim.o)
 .rodata.audio_micdc_trim_step0_run.str1.4
                0x0000000000000000       0x20 ..\..\libs\cpu\libplatform.a(audio_mic_trim.o)
 .text.audio_micdc_trim_step0_run
                0x0000000000000000      0x146 ..\..\libs\cpu\libplatform.a(audio_mic_trim.o)
 .text.audio_micdc_trim_step1_init
                0x0000000000000000       0x20 ..\..\libs\cpu\libplatform.a(audio_mic_trim.o)
 .text.audio_micdc_trim_step1_waiting
                0x0000000000000000       0x12 ..\..\libs\cpu\libplatform.a(audio_mic_trim.o)
 .text.audio_micdc_trim_step1_run
                0x0000000000000000       0x26 ..\..\libs\cpu\libplatform.a(audio_mic_trim.o)
 .text.audio_micdc_trim_step2_init
                0x0000000000000000        0x8 ..\..\libs\cpu\libplatform.a(audio_mic_trim.o)
 .text.audio_micdc_trim_step2_waiting
                0x0000000000000000        0x8 ..\..\libs\cpu\libplatform.a(audio_mic_trim.o)
 .text.audio_micdc_trim_step2_run
                0x0000000000000000        0xe ..\..\libs\cpu\libplatform.a(audio_mic_trim.o)
 .rodata.micin_config.str1.4
                0x0000000000000000       0x20 ..\..\libs\cpu\libplatform.a(audio_mic_trim.o)
 .text.micin_config
                0x0000000000000000       0x6e ..\..\libs\cpu\libplatform.a(audio_mic_trim.o)
 .text.audio_micin_trim_step0_init
                0x0000000000000000       0x3a ..\..\libs\cpu\libplatform.a(audio_mic_trim.o)
 .text.audio_micin_trim_step0_waiting
                0x0000000000000000       0x14 ..\..\libs\cpu\libplatform.a(audio_mic_trim.o)
 .text.audio_micin_trim_step0_run
                0x0000000000000000       0x60 ..\..\libs\cpu\libplatform.a(audio_mic_trim.o)
 .text.audio_micin_trim_step1_init
                0x0000000000000000       0x2e ..\..\libs\cpu\libplatform.a(audio_mic_trim.o)
 .text.audio_micin_trim_step1_waiting
                0x0000000000000000        0x8 ..\..\libs\cpu\libplatform.a(audio_mic_trim.o)
 .text.audio_micin_trim_step1_run
                0x0000000000000000       0x4c ..\..\libs\cpu\libplatform.a(audio_mic_trim.o)
 .text.audio_micin_trim_step2_run
                0x0000000000000000       0x64 ..\..\libs\cpu\libplatform.a(audio_mic_trim.o)
 .text.audio_mic_trim_proc
                0x0000000000000000      0x180 ..\..\libs\cpu\libplatform.a(audio_mic_trim.o)
 .text.audio_mic_trim_is_finish
                0x0000000000000000       0x10 ..\..\libs\cpu\libplatform.a(audio_mic_trim.o)
 .bss.audio_mic_trim
                0x0000000000000000       0x18 ..\..\libs\cpu\libplatform.a(audio_mic_trim.o)
 .rodata.CSWTCH.14
                0x0000000000000000       0x4c ..\..\libs\cpu\libplatform.a(audio_mic_trim.o)
 .rodata.CSWTCH.15
                0x0000000000000000       0x4c ..\..\libs\cpu\libplatform.a(audio_mic_trim.o)
 .comment       0x0000000000000000       0x13 ..\..\libs\cpu\libplatform.a(audio_mic_trim.o)
 .riscv.attributes
                0x0000000000000000       0x32 ..\..\libs\cpu\libplatform.a(audio_mic_trim.o)
 .text          0x0000000000000000        0x0 ..\..\libs\cpu\libplatform.a(cm.o)
 .data          0x0000000000000000        0x0 ..\..\libs\cpu\libplatform.a(cm.o)
 .bss           0x0000000000000000        0x0 ..\..\libs\cpu\libplatform.a(cm.o)
 .rodata.cm_move_allpages.str1.4
                0x0000000000000000       0x3a ..\..\libs\cpu\libplatform.a(cm.o)
 .text.cm_move_allpages
                0x0000000000000000      0x13e ..\..\libs\cpu\libplatform.a(cm.o)
 .text.cm_get_startaddr
                0x0000000000000000        0xa ..\..\libs\cpu\libplatform.a(cm.o)
 .text.cm_get_area
                0x0000000000000000       0x14 ..\..\libs\cpu\libplatform.a(cm.o)
 .text.cm_release_all
                0x0000000000000000       0x8c ..\..\libs\cpu\libplatform.a(cm.o)
 .text.cm_read8
                0x0000000000000000       0x28 ..\..\libs\cpu\libplatform.a(cm.o)
 .text.cm_read16
                0x0000000000000000       0x28 ..\..\libs\cpu\libplatform.a(cm.o)
 .text.cm_read32
                0x0000000000000000       0x24 ..\..\libs\cpu\libplatform.a(cm.o)
 .text.cm_write8
                0x0000000000000000       0x28 ..\..\libs\cpu\libplatform.a(cm.o)
 .text.cm_write16
                0x0000000000000000       0x28 ..\..\libs\cpu\libplatform.a(cm.o)
 .text.cm_write32
                0x0000000000000000       0x24 ..\..\libs\cpu\libplatform.a(cm.o)
 .text.cm_clear
                0x0000000000000000       0x60 ..\..\libs\cpu\libplatform.a(cm.o)
 .text          0x0000000000000000        0x0 ..\..\libs\cpu\libplatform.a(os_flash.o)
 .data          0x0000000000000000        0x0 ..\..\libs\cpu\libplatform.a(os_flash.o)
 .bss           0x0000000000000000        0x0 ..\..\libs\cpu\libplatform.a(os_flash.o)
 .com_text.spiflash.id
                0x0000000000000000        0x8 ..\..\libs\cpu\libplatform.a(os_flash.o)
 .text          0x0000000000000000        0x0 ..\..\libs\cpu\libplatform.a(xcfg.o)
 .data          0x0000000000000000        0x0 ..\..\libs\cpu\libplatform.a(xcfg.o)
 .bss           0x0000000000000000        0x0 ..\..\libs\cpu\libplatform.a(xcfg.o)
 .text          0x0000000000000000        0x0 ..\..\libs\cpu\libplatform.a(main.o)
 .data          0x0000000000000000        0x0 ..\..\libs\cpu\libplatform.a(main.o)
 .bss           0x0000000000000000        0x0 ..\..\libs\cpu\libplatform.a(main.o)
 .text          0x0000000000000000        0x0 ..\..\libs\cpu\libplatform.a(interrupt.o)
 .data          0x0000000000000000        0x0 ..\..\libs\cpu\libplatform.a(interrupt.o)
 .bss           0x0000000000000000        0x0 ..\..\libs\cpu\libplatform.a(interrupt.o)
 .com_text.irq.wpt
                0x0000000000000000       0x3e ..\..\libs\cpu\libplatform.a(interrupt.o)
 .rodata.watch_point_set.str1.4
                0x0000000000000000       0x28 ..\..\libs\cpu\libplatform.a(interrupt.o)
 .text.watch_point_set
                0x0000000000000000       0x5c ..\..\libs\cpu\libplatform.a(interrupt.o)
 .text.wdt_init
                0x0000000000000000       0x3a ..\..\libs\cpu\libplatform.a(interrupt.o)
 .text.usb_irq_init
                0x0000000000000000       0x2e ..\..\libs\cpu\libplatform.a(interrupt.o)
 .com_rodata.irq.wpt
                0x0000000000000000       0x1b ..\..\libs\cpu\libplatform.a(interrupt.o)
 .text          0x0000000000000000        0x0 ..\..\libs\cpu\libplatform.a(startup.o)
 .data          0x0000000000000000        0x0 ..\..\libs\cpu\libplatform.a(startup.o)
 .bss           0x0000000000000000        0x0 ..\..\libs\cpu\libplatform.a(startup.o)
 .com_text.timer
                0x0000000000000000       0x16 ..\..\libs\cpu\libplatform.a(startup.o)
 .text.mem_heap_size_get
                0x0000000000000000        0x6 ..\..\libs\cpu\libplatform.a(startup.o)
 .text.thread_cfg_get
                0x0000000000000000        0x4 ..\..\libs\cpu\libplatform.a(startup.o)
 .rodata.thread_timer_create.str1.4
                0x0000000000000000        0x4 ..\..\libs\cpu\libplatform.a(startup.o)
 .text.thread_timer_create
                0x0000000000000000       0x76 ..\..\libs\cpu\libplatform.a(startup.o)
 .rodata.thread_driver_create.str1.4
                0x0000000000000000        0x4 ..\..\libs\cpu\libplatform.a(startup.o)
 .text.thread_driver_create
                0x0000000000000000       0x70 ..\..\libs\cpu\libplatform.a(startup.o)
 .text.thread_create_callback
                0x0000000000000000       0x28 ..\..\libs\cpu\libplatform.a(startup.o)
 .bss.driver    0x0000000000000000        0x4 ..\..\libs\cpu\libplatform.a(startup.o)
 .bss.timer     0x0000000000000000       0x28 ..\..\libs\cpu\libplatform.a(startup.o)
 .osmem         0x0000000000000000      0x600 ..\..\libs\cpu\libplatform.a(startup.o)
 .text          0x0000000000000000        0x0 ..\..\libs\cpu\libplatform.a(sys_hook.o)
 .data          0x0000000000000000        0x0 ..\..\libs\cpu\libplatform.a(sys_hook.o)
 .bss           0x0000000000000000        0x0 ..\..\libs\cpu\libplatform.a(sys_hook.o)
 .text          0x0000000000000000        0x0 ..\..\libs\cpu\libplatform.a(thread_driver.o)
 .data          0x0000000000000000        0x0 ..\..\libs\cpu\libplatform.a(thread_driver.o)
 .bss           0x0000000000000000        0x0 ..\..\libs\cpu\libplatform.a(thread_driver.o)
 .com_text.thread.driver.usb
                0x0000000000000000       0x4e ..\..\libs\cpu\libplatform.a(thread_driver.o)
 .com_text.thread.driver.vs
                0x0000000000000000       0x4e ..\..\libs\cpu\libplatform.a(thread_driver.o)
 .text.thread.driver.usb
                0x0000000000000000       0x1a ..\..\libs\cpu\libplatform.a(thread_driver.o)
 .text.thread.driver.vs
                0x0000000000000000       0x1a ..\..\libs\cpu\libplatform.a(thread_driver.o)
 .com_text.thread.driver.enter
                0x0000000000000000       0x5c ..\..\libs\cpu\libplatform.a(thread_driver.o)
 .sbss.thread_driver_usb_enter_func
                0x0000000000000000        0x4 ..\..\libs\cpu\libplatform.a(thread_driver.o)
 .sbss.thread_driver_vs_enter_func
                0x0000000000000000        0x4 ..\..\libs\cpu\libplatform.a(thread_driver.o)
 .comment       0x0000000000000000       0x13 ..\..\libs\cpu\libplatform.a(thread_driver.o)
 .riscv.attributes
                0x0000000000000000       0x32 ..\..\libs\cpu\libplatform.a(thread_driver.o)
 .text          0x0000000000000000        0x0 ..\..\libs\cpu\libplatform.a(pll.o)
 .data          0x0000000000000000        0x0 ..\..\libs\cpu\libplatform.a(pll.o)
 .bss           0x0000000000000000        0x0 ..\..\libs\cpu\libplatform.a(pll.o)
 .text.pll_clk_nhz_get
                0x0000000000000000        0xa ..\..\libs\cpu\libplatform.a(pll.o)
 .text.pll_ext_init
                0x0000000000000000      0x204 ..\..\libs\cpu\libplatform.a(pll.o)
 .text          0x0000000000000000        0x0 ..\..\libs\cpu\libplatform.a(pmu.o)
 .data          0x0000000000000000        0x0 ..\..\libs\cpu\libplatform.a(pmu.o)
 .bss           0x0000000000000000        0x0 ..\..\libs\cpu\libplatform.a(pmu.o)
 .com_text.trim.vddio_get
                0x0000000000000000        0xa ..\..\libs\cpu\libplatform.a(pmu.o)
 .com_text.trim.vddio_set
                0x0000000000000000       0x2c ..\..\libs\cpu\libplatform.a(pmu.o)
 .com_text.trim.core_get
                0x0000000000000000        0xa ..\..\libs\cpu\libplatform.a(pmu.o)
 .com_text.trim.core_set
                0x0000000000000000       0x16 ..\..\libs\cpu\libplatform.a(pmu.o)
 .com_text.trim.lvd_get
                0x0000000000000000        0xa ..\..\libs\cpu\libplatform.a(pmu.o)
 .com_text.pmu.vddbt_set
                0x0000000000000000        0xe ..\..\libs\cpu\libplatform.a(pmu.o)
 .com_text.pmu.vddbt_get
                0x0000000000000000        0x8 ..\..\libs\cpu\libplatform.a(pmu.o)
 .text          0x0000000000000000        0x0 ..\..\libs\cpu\libplatform.a(reset.o)
 .data          0x0000000000000000        0x0 ..\..\libs\cpu\libplatform.a(reset.o)
 .bss           0x0000000000000000        0x0 ..\..\libs\cpu\libplatform.a(reset.o)
 .com_text.irq  0x0000000000000000        0xe ..\..\libs\cpu\libplatform.a(reset.o)
 .text          0x0000000000000000        0x0 ..\..\libs\cpu\libplatform.a(context.o)
 .data          0x0000000000000000        0x0 ..\..\libs\cpu\libplatform.a(context.o)
 .bss           0x0000000000000000        0x0 ..\..\libs\cpu\libplatform.a(context.o)
 .riscv.attributes
                0x0000000000000000       0x30 ..\..\libs\cpu\libplatform.a(context.o)
 .text          0x0000000000000000        0x0 ..\..\libs\cpu\libplatform.a(spiflash.o)
 .data          0x0000000000000000        0x0 ..\..\libs\cpu\libplatform.a(spiflash.o)
 .bss           0x0000000000000000        0x0 ..\..\libs\cpu\libplatform.a(spiflash.o)
 .text          0x0000000000000000        0x0 ..\..\libs\cpu\libplatform.a(debug.o)
 .data          0x0000000000000000        0x0 ..\..\libs\cpu\libplatform.a(debug.o)
 .bss           0x0000000000000000        0x0 ..\..\libs\cpu\libplatform.a(debug.o)
 .text.debug_dump_info_nanos_schedule
                0x0000000000000000        0x2 ..\..\libs\cpu\libplatform.a(debug.o)
 .text.debug_dump_info_nanos_timer
                0x0000000000000000        0x2 ..\..\libs\cpu\libplatform.a(debug.o)
 .text          0x0000000000000000        0x0 ..\..\libs\cpu\libplatform.a(fot_pack.o)
 .data          0x0000000000000000        0x0 ..\..\libs\cpu\libplatform.a(fot_pack.o)
 .bss           0x0000000000000000        0x0 ..\..\libs\cpu\libplatform.a(fot_pack.o)
 .text.ota_pack
                0x0000000000000000      0x4ea ..\..\libs\cpu\libplatform.a(fot_pack.o)
 .text.ota_pack_get_curaddr
                0x0000000000000000        0xa ..\..\libs\cpu\libplatform.a(fot_pack.o)
 .text.ota_pack_get_err
                0x0000000000000000       0x14 ..\..\libs\cpu\libplatform.a(fot_pack.o)
 .text.ota_pack_get_dst_start
                0x0000000000000000        0xa ..\..\libs\cpu\libplatform.a(fot_pack.o)
 .text.ota_pack_done
                0x0000000000000000       0x58 ..\..\libs\cpu\libplatform.a(fot_pack.o)
 .text.fot.cache
                0x0000000000000000      0x156 ..\..\libs\cpu\libplatform.a(fot_pack.o)
 .text.ota_pack_breakpoint_info_read
                0x0000000000000000       0xbc ..\..\libs\cpu\libplatform.a(fot_pack.o)
 .fot_data.com.pack
                0x0000000000000000       0x44 ..\..\libs\cpu\libplatform.a(fot_pack.o)
 .sbss.fot_update_init
                0x0000000000000000        0x1 ..\..\libs\cpu\libplatform.a(fot_pack.o)
 .text          0x0000000000000000        0x0 ..\..\libs\cpu\libplatform.a(lock.o)
 .data          0x0000000000000000        0x0 ..\..\libs\cpu\libplatform.a(lock.o)
 .bss           0x0000000000000000        0x0 ..\..\libs\cpu\libplatform.a(lock.o)
 .rodata.lock_code_usbdev.str1.4
                0x0000000000000000       0x16 ..\..\libs\cpu\libplatform.a(lock.o)
 .text.lock_code_usbdev
                0x0000000000000000       0x54 ..\..\libs\cpu\libplatform.a(lock.o)
 .text.unlock_code_usbdev
                0x0000000000000000       0x28 ..\..\libs\cpu\libplatform.a(lock.o)
 .text          0x0000000000000000        0x0 ..\..\libs\cpu\libplatform.a(patch.o)
 .data          0x0000000000000000        0x0 ..\..\libs\cpu\libplatform.a(patch.o)
 .bss           0x0000000000000000        0x0 ..\..\libs\cpu\libplatform.a(patch.o)
 .text          0x0000000000000000        0x0 ..\..\libs\cpu\libplatform.a(s_sys.o)
 .data          0x0000000000000000        0x0 ..\..\libs\cpu\libplatform.a(s_sys.o)
 .bss           0x0000000000000000        0x0 ..\..\libs\cpu\libplatform.a(s_sys.o)
 .com_text.sys.alu
                0x0000000000000000       0x66 ..\..\libs\cpu\libplatform.a(s_sys.o)
 .text          0x0000000000000000        0x0 ..\..\libs\cpu\libplatform.a(sleep.o)
 .data          0x0000000000000000        0x0 ..\..\libs\cpu\libplatform.a(sleep.o)
 .bss           0x0000000000000000        0x0 ..\..\libs\cpu\libplatform.a(sleep.o)
 .com_sleep.lp.sleep
                0x0000000000000000       0x76 ..\..\libs\cpu\libplatform.a(sleep.o)
 .comment       0x0000000000000000       0x13 ..\..\libs\cpu\libplatform.a(sleep.o)
 .riscv.attributes
                0x0000000000000000       0x32 ..\..\libs\cpu\libplatform.a(sleep.o)
 .text          0x0000000000000000        0x0 ..\..\libs\cpu\libplatform.a(sys.o)
 .data          0x0000000000000000        0x0 ..\..\libs\cpu\libplatform.a(sys.o)
 .bss           0x0000000000000000        0x0 ..\..\libs\cpu\libplatform.a(sys.o)
 .text.dbg_clk_out
                0x0000000000000000       0x46 ..\..\libs\cpu\libplatform.a(sys.o)
 .text.rc2m_clk_nhz_get
                0x0000000000000000       0x30 ..\..\libs\cpu\libplatform.a(sys.o)
 .com_text.sys  0x0000000000000000       0x1e ..\..\libs\cpu\libplatform.a(sys.o)
 .text.sw_reset_source_get
                0x0000000000000000       0x2a ..\..\libs\cpu\libplatform.a(sys.o)
 .text.random_init
                0x0000000000000000        0xa ..\..\libs\cpu\libplatform.a(sys.o)
 .text.sys_get_rand_key
                0x0000000000000000       0x6c ..\..\libs\cpu\libplatform.a(sys.o)
 .text.get_random
                0x0000000000000000       0x26 ..\..\libs\cpu\libplatform.a(sys.o)
 .text.bt_restore_xosc_cap
                0x0000000000000000        0x8 ..\..\libs\cpu\libplatform.a(sys.o)
 .text.__divdi3
                0x0000000000000000       0x5c ..\..\libs\cpu\libplatform.a(sys.o)
 .text.__umoddi3
                0x0000000000000000       0x30 ..\..\libs\cpu\libplatform.a(sys.o)
 .text          0x0000000000000000        0x0 ..\..\libs\cpu\libplatform.a(sys_clk.o)
 .data          0x0000000000000000        0x0 ..\..\libs\cpu\libplatform.a(sys_clk.o)
 .bss           0x0000000000000000        0x0 ..\..\libs\cpu\libplatform.a(sys_clk.o)
 .text.periph_cacl_clkdiv
                0x0000000000000000        0x2 ..\..\libs\cpu\libplatform.a(sys_clk.o)
 .text.sys_clk_nhz_get
                0x0000000000000000       0x5e ..\..\libs\cpu\libplatform.a(sys_clk.o)
 .text.sys_clk_get
                0x0000000000000000        0xa ..\..\libs\cpu\libplatform.a(sys_clk.o)
 .text.sys_clk_lower_limit_lock
                0x0000000000000000       0x84 ..\..\libs\cpu\libplatform.a(sys_clk.o)
 .text.sys_clk_lower_limit_unlock
                0x0000000000000000       0x6c ..\..\libs\cpu\libplatform.a(sys_clk.o)
 .text.sys_clk_lower_limit_all_unlock
                0x0000000000000000       0x50 ..\..\libs\cpu\libplatform.a(sys_clk.o)
 .sbss.cfg_spiflash_speed_up_en
                0x0000000000000000        0x1 ..\..\libs\cpu\libplatform.a(sys_clk.o)
 .srodata.rtc_clk_div_coef
                0x0000000000000000        0x4 ..\..\libs\cpu\libplatform.a(sys_clk.o)
 .text          0x0000000000000000        0x0 ..\..\libs\cpu\libplatform.a(voltage_trim.o)
 .data          0x0000000000000000        0x0 ..\..\libs\cpu\libplatform.a(voltage_trim.o)
 .bss           0x0000000000000000        0x0 ..\..\libs\cpu\libplatform.a(voltage_trim.o)
 .text.pmu_get_vbg_mv
                0x0000000000000000        0xe ..\..\libs\cpu\libplatform.a(voltage_trim.o)
 .text.pmu_get_vbatdet
                0x0000000000000000       0x46 ..\..\libs\cpu\libplatform.a(voltage_trim.o)
 .rodata.voltage_trim_value_dump.str1.4
                0x0000000000000000       0x63 ..\..\libs\cpu\libplatform.a(voltage_trim.o)
 .text.voltage_trim_value_dump
                0x0000000000000000       0x8c ..\..\libs\cpu\libplatform.a(voltage_trim.o)
 .text          0x0000000000000000        0x0 ..\..\libs\cpu\libplatform.a(weak_symbol.o)
 .data          0x0000000000000000        0x0 ..\..\libs\cpu\libplatform.a(weak_symbol.o)
 .bss           0x0000000000000000        0x0 ..\..\libs\cpu\libplatform.a(weak_symbol.o)
 .com_text.timer
                0x0000000000000000        0x4 ..\..\libs\cpu\libplatform.a(weak_symbol.o)
 .text.xosc_get_xcfg
                0x0000000000000000        0x2 ..\..\libs\cpu\libplatform.a(weak_symbol.o)
 .text.param_xosc_read
                0x0000000000000000        0x2 ..\..\libs\cpu\libplatform.a(weak_symbol.o)
 .text.param_xosc_write
                0x0000000000000000        0x2 ..\..\libs\cpu\libplatform.a(weak_symbol.o)
 .text.sys_clk_change_callback
                0x0000000000000000        0x2 ..\..\libs\cpu\libplatform.a(weak_symbol.o)
 .text.uart_debug_init_callback
                0x0000000000000000        0x2 ..\..\libs\cpu\libplatform.a(weak_symbol.o)
 .text.nanos_var_init
                0x0000000000000000       0x1c ..\..\libs\cpu\libplatform.a(weak_symbol.o)
 .text.btstack_message
                0x0000000000000000        0x4 ..\..\libs\cpu\libplatform.a(weak_symbol.o)
 .com_text.stack.api
                0x0000000000000000        0x4 ..\..\libs\cpu\libplatform.a(weak_symbol.o)
 .com_text.ret.stack.thread
                0x0000000000000000        0x2 ..\..\libs\cpu\libplatform.a(weak_symbol.o)
 .com_text.bb.isr
                0x0000000000000000        0x6 ..\..\libs\cpu\libplatform.a(weak_symbol.o)
 .com_text.isr  0x0000000000000000        0x2 ..\..\libs\cpu\libplatform.a(weak_symbol.o)
 .text.btstack_var_init
                0x0000000000000000        0x2 ..\..\libs\cpu\libplatform.a(weak_symbol.o)
 .text.bb_patch_init
                0x0000000000000000        0x4 ..\..\libs\cpu\libplatform.a(weak_symbol.o)
 .text.bb_nanos_mem_init
                0x0000000000000000        0x2 ..\..\libs\cpu\libplatform.a(weak_symbol.o)
 .bss.heap_buf  0x0000000000000000       0x14 ..\..\libs\cpu\libplatform.a(weak_symbol.o)
 .bss.heap_size_buf
                0x0000000000000000        0xa ..\..\libs\cpu\libplatform.a(weak_symbol.o)
 .text          0x0000000000000000        0x0 ..\..\libs\cpu\libplatform.a(bt.o)
 .data          0x0000000000000000        0x0 ..\..\libs\cpu\libplatform.a(bt.o)
 .bss           0x0000000000000000        0x0 ..\..\libs\cpu\libplatform.a(bt.o)
 .text          0x0000000000000000        0x0 ..\..\libs\cpu\libplatform.a(freq_det.o)
 .data          0x0000000000000000        0x0 ..\..\libs\cpu\libplatform.a(freq_det.o)
 .bss           0x0000000000000000        0x0 ..\..\libs\cpu\libplatform.a(freq_det.o)
 .com_sleep.sleep.rc
                0x0000000000000000       0x50 ..\..\libs\cpu\libplatform.a(freq_det.o)
 .data          0x0000000000000000        0x0 ..\..\libs\ble\libbtstack.a(txpkt.o)
 .bss           0x0000000000000000        0x0 ..\..\libs\ble\libbtstack.a(txpkt.o)
 .data          0x0000000000000000        0x0 ..\..\libs\ble\libbtstack.a(hci.o)
 .bss           0x0000000000000000        0x0 ..\..\libs\ble\libbtstack.a(hci.o)
 .text.hci.adv.is_enable
                0x0000000000000000       0x14 ..\..\libs\ble\libbtstack.a(hci.o)
 .com_text.stack.hci_recv
                0x0000000000000000       0x10 ..\..\libs\ble\libbtstack.a(hci.o)
 .data          0x0000000000000000        0x0 ..\..\libs\ble\libbtstack.a(btstack_util.o)
 .bss           0x0000000000000000        0x0 ..\..\libs\ble\libbtstack.a(btstack_util.o)
 .text          0x0000000000000000      0x990 ..\..\libs\ble\libbtstack.a(sm.o)
 .data          0x0000000000000000        0x0 ..\..\libs\ble\libbtstack.a(sm.o)
 .rodata.str1.4
                0x0000000000000000       0x50 ..\..\libs\ble\libbtstack.a(sm.o)
 .text.sm.request
                0x0000000000000000       0xb4 ..\..\libs\ble\libbtstack.a(sm.o)
 .text.sm.er.get
                0x0000000000000000       0x4a ..\..\libs\ble\libbtstack.a(sm.o)
 .text.sm.ir    0x0000000000000000       0x4a ..\..\libs\ble\libbtstack.a(sm.o)
 .text.sm.cmac  0x0000000000000000       0x82 ..\..\libs\ble\libbtstack.a(sm.o)
 .text.sm.irk.set
                0x0000000000000000       0x2e ..\..\libs\ble\libbtstack.a(sm.o)
 .text.stack.ble.sm
                0x0000000000000000      0x110 ..\..\libs\ble\libbtstack.a(sm.o)
 .text.sm.key_size
                0x0000000000000000       0x2c ..\..\libs\ble\libbtstack.a(sm.o)
 .text.sm.auth  0x0000000000000000       0x2c ..\..\libs\ble\libbtstack.a(sm.o)
 .text.sm.pairing
                0x0000000000000000       0x30 ..\..\libs\ble\libbtstack.a(sm.o)
 .text.sm.bonding_decline
                0x0000000000000000       0x60 ..\..\libs\ble\libbtstack.a(sm.o)
 .text.sm.confirm
                0x0000000000000000       0x38 ..\..\libs\ble\libbtstack.a(sm.o)
 .text.sm.passkey.set
                0x0000000000000000       0x3e ..\..\libs\ble\libbtstack.a(sm.o)
 .text.sm.passkey.get
                0x0000000000000000       0x2e ..\..\libs\ble\libbtstack.a(sm.o)
 .text.sm.passkey.input
                0x0000000000000000       0x58 ..\..\libs\ble\libbtstack.a(sm.o)
 .text.sm.identity_resolving_state
                0x0000000000000000       0x20 ..\..\libs\ble\libbtstack.a(sm.o)
 .text.gap.addr
                0x0000000000000000        0xa ..\..\libs\ble\libbtstack.a(sm.o)
 .text.sm.run   0x0000000000000000      0xca8 ..\..\libs\ble\libbtstack.a(sm.o)
 .text.sm.pdu   0x0000000000000000      0x2cc ..\..\libs\ble\libbtstack.a(sm.o)
 .text.sm.event
                0x0000000000000000      0xae8 ..\..\libs\ble\libbtstack.a(sm.o)
 .text.sm.reconnect
                0x0000000000000000       0x58 ..\..\libs\ble\libbtstack.a(sm.o)
 .text.sm.irk_get
                0x0000000000000000        0xa ..\..\libs\ble\libbtstack.a(sm.o)
 .text.sm.delete_bonding
                0x0000000000000000       0x6e ..\..\libs\ble\libbtstack.a(sm.o)
 .rodata        0x0000000000000000       0x64 ..\..\libs\ble\libbtstack.a(sm.o)
 .ble_cache.sm  0x0000000000000000        0x8 ..\..\libs\ble\libbtstack.a(sm.o)
 .ble_cache.sm.auth
                0x0000000000000000        0x1 ..\..\libs\ble\libbtstack.a(sm.o)
 .ble_cache.sm.cmac
                0x0000000000000000       0x45 ..\..\libs\ble\libbtstack.a(sm.o)
 .ble_cache.sm.dhk
                0x0000000000000000       0x10 ..\..\libs\ble\libbtstack.a(sm.o)
 .ble_cache.sm.io
                0x0000000000000000        0x1 ..\..\libs\ble\libbtstack.a(sm.o)
 .ble_cache.sm.req
                0x0000000000000000        0x1 ..\..\libs\ble\libbtstack.a(sm.o)
 .ble_cache.sm.resolution
                0x0000000000000000       0x18 ..\..\libs\ble\libbtstack.a(sm.o)
 .ble_cache.sm.setup
                0x0000000000000000      0x100 ..\..\libs\ble\libbtstack.a(sm.o)
 .sdata         0x0000000000000000        0x2 ..\..\libs\ble\libbtstack.a(sm.o)
 .data          0x0000000000000000        0x0 ..\..\libs\ble\libbtstack.a(le_device_db_memory.o)
 .bss           0x0000000000000000        0x0 ..\..\libs\ble\libbtstack.a(le_device_db_memory.o)
 .text.le.db.get
                0x0000000000000000       0x3e ..\..\libs\ble\libbtstack.a(le_device_db_memory.o)
 .text.le.db.remove
                0x0000000000000000       0x9e ..\..\libs\ble\libbtstack.a(le_device_db_memory.o)
 .text.le.db.remove_all
                0x0000000000000000       0x60 ..\..\libs\ble\libbtstack.a(le_device_db_memory.o)
 .rodata.str1.4
                0x0000000000000000        0x4 ..\..\libs\ble\libbtstack.a(le_device_db_memory.o)
 .text.le.db.add
                0x0000000000000000       0xe4 ..\..\libs\ble\libbtstack.a(le_device_db_memory.o)
 .text.le.db.dump
                0x0000000000000000       0x6a ..\..\libs\ble\libbtstack.a(le_device_db_memory.o)
 .text.le.db.get_index
                0x0000000000000000       0x1c ..\..\libs\ble\libbtstack.a(le_device_db_memory.o)
 .data          0x0000000000000000        0x0 ..\..\libs\ble\libbtstack.a(gatt_server.o)
 .bss           0x0000000000000000        0x0 ..\..\libs\ble\libbtstack.a(gatt_server.o)
 .text.stack.send.ntf_kick
                0x0000000000000000        0x8 ..\..\libs\ble\libbtstack.a(gatt_server.o)
 .text          0x0000000000000000     0x1dc0 ..\..\libs\ble\libbtstack.a(gatt_client.o)
 .data          0x0000000000000000        0x0 ..\..\libs\ble\libbtstack.a(gatt_client.o)
 .bss           0x0000000000000000        0x0 ..\..\libs\ble\libbtstack.a(gatt_client.o)
 .text.client.set.sm_level
                0x0000000000000000        0xa ..\..\libs\ble\libbtstack.a(gatt_client.o)
 .text.client.write_req
                0x0000000000000000       0x88 ..\..\libs\ble\libbtstack.a(gatt_client.o)
 .text.client.stop_listening
                0x0000000000000000       0x14 ..\..\libs\ble\libbtstack.a(gatt_client.o)
 .text.sm.client
                0x0000000000000000      0x1a4 ..\..\libs\ble\libbtstack.a(gatt_client.o)
 .text.client.deserialize_service
                0x0000000000000000       0x5c ..\..\libs\ble\libbtstack.a(gatt_client.o)
 .text.client.deserialize_characteristic
                0x0000000000000000       0x6c ..\..\libs\ble\libbtstack.a(gatt_client.o)
 .text.client.deserialize_characteristic_descriptor
                0x0000000000000000       0x4e ..\..\libs\ble\libbtstack.a(gatt_client.o)
 .text.client.get_character_uuid16
                0x0000000000000000       0x22 ..\..\libs\ble\libbtstack.a(gatt_client.o)
 .text.client.get_character_uuid128
                0x0000000000000000       0x42 ..\..\libs\ble\libbtstack.a(gatt_client.o)
 .text.client.write_cmd
                0x0000000000000000       0x24 ..\..\libs\ble\libbtstack.a(gatt_client.o)
 .text.client.read_req
                0x0000000000000000       0x44 ..\..\libs\ble\libbtstack.a(gatt_client.o)
 .text.client.read_blob
                0x0000000000000000       0x22 ..\..\libs\ble\libbtstack.a(gatt_client.o)
 .text.stack.send.client
                0x0000000000000000       0x96 ..\..\libs\ble\libbtstack.a(gatt_client.o)
 .text.client.find_services
                0x0000000000000000       0x5e ..\..\libs\ble\libbtstack.a(gatt_client.o)
 .text.client.discover_secondary_services
                0x0000000000000000       0x4c ..\..\libs\ble\libbtstack.a(gatt_client.o)
 .text.client.find_services_uuid16
                0x0000000000000000       0x6a ..\..\libs\ble\libbtstack.a(gatt_client.o)
 .text.client.find_services_uuid128
                0x0000000000000000       0x6e ..\..\libs\ble\libbtstack.a(gatt_client.o)
 .text.client.find_character
                0x0000000000000000       0x6a ..\..\libs\ble\libbtstack.a(gatt_client.o)
 .text.client.find_included_services
                0x0000000000000000       0x4e ..\..\libs\ble\libbtstack.a(gatt_client.o)
 .text.client.find_character_uuid16
                0x0000000000000000       0x90 ..\..\libs\ble\libbtstack.a(gatt_client.o)
 .text.client.find_character_uuid128
                0x0000000000000000       0x92 ..\..\libs\ble\libbtstack.a(gatt_client.o)
 .text.client.discover_characteristic_descriptors
                0x0000000000000000       0x5e ..\..\libs\ble\libbtstack.a(gatt_client.o)
 .text.client.read_value
                0x0000000000000000        0xc ..\..\libs\ble\libbtstack.a(gatt_client.o)
 .text.client.read_value_uuid16
                0x0000000000000000       0x66 ..\..\libs\ble\libbtstack.a(gatt_client.o)
 .text.client.read_value_uuid128
                0x0000000000000000       0x68 ..\..\libs\ble\libbtstack.a(gatt_client.o)
 .text.client.read_long_value_offset
                0x0000000000000000       0x4a ..\..\libs\ble\libbtstack.a(gatt_client.o)
 .text.client.read_long_value
                0x0000000000000000       0x16 ..\..\libs\ble\libbtstack.a(gatt_client.o)
 .text.client.read_multiple
                0x0000000000000000       0x48 ..\..\libs\ble\libbtstack.a(gatt_client.o)
 .text.client.write_long_value
                0x0000000000000000       0x62 ..\..\libs\ble\libbtstack.a(gatt_client.o)
 .text.client.reliable_write_long
                0x0000000000000000       0x52 ..\..\libs\ble\libbtstack.a(gatt_client.o)
 .text.client.read_characteristic
                0x0000000000000000       0x50 ..\..\libs\ble\libbtstack.a(gatt_client.o)
 .text.client.read_long_characteristic_descriptor
                0x0000000000000000       0x62 ..\..\libs\ble\libbtstack.a(gatt_client.o)
 .text.client.write_character_desc
                0x0000000000000000       0x60 ..\..\libs\ble\libbtstack.a(gatt_client.o)
 .text.client.write_long_character_desc
                0x0000000000000000       0x70 ..\..\libs\ble\libbtstack.a(gatt_client.o)
 .text.client.prepare_write
                0x0000000000000000       0x56 ..\..\libs\ble\libbtstack.a(gatt_client.o)
 .text.client.execute_write
                0x0000000000000000       0x3c ..\..\libs\ble\libbtstack.a(gatt_client.o)
 .text.client.cancel_write
                0x0000000000000000       0x3c ..\..\libs\ble\libbtstack.a(gatt_client.o)
 .rodata        0x0000000000000000       0x14 ..\..\libs\ble\libbtstack.a(gatt_client.o)
 .ble_buf.read  0x0000000000000000        0x6 ..\..\libs\ble\libbtstack.a(gatt_client.o)
 .sbss          0x0000000000000000        0x4 ..\..\libs\ble\libbtstack.a(gatt_client.o)
 .data          0x0000000000000000        0x0 ..\..\libs\ble\libbtstack.a(att_server.o)
 .bss           0x0000000000000000        0x0 ..\..\libs\ble\libbtstack.a(att_server.o)
 .text.sm.server
                0x0000000000000000      0x210 ..\..\libs\ble\libbtstack.a(att_server.o)
 .data          0x0000000000000000        0x0 ..\..\libs\ble\libbtstack.a(att_dispatch.o)
 .bss           0x0000000000000000        0x0 ..\..\libs\ble\libbtstack.a(att_dispatch.o)
 .text.att.register_client
                0x0000000000000000       0x1a ..\..\libs\ble\libbtstack.a(att_dispatch.o)
 .text.att.client_mtu
                0x0000000000000000       0x14 ..\..\libs\ble\libbtstack.a(att_dispatch.o)
 .data          0x0000000000000000        0x0 ..\..\libs\ble\libbtstack.a(att_db.o)
 .bss           0x0000000000000000        0x0 ..\..\libs\ble\libbtstack.a(att_db.o)
 .text.att.dump
                0x0000000000000000       0x5c ..\..\libs\ble\libbtstack.a(att_db.o)
 .text.gatt.get_client_config
                0x0000000000000000      0x122 ..\..\libs\ble\libbtstack.a(att_db.o)
 .text          0x0000000000000000      0x270 ..\..\libs\ble\libbtstack.a(ad_parser.o)
 .data          0x0000000000000000        0x0 ..\..\libs\ble\libbtstack.a(ad_parser.o)
 .bss           0x0000000000000000        0x0 ..\..\libs\ble\libbtstack.a(ad_parser.o)
 .comment       0x0000000000000000       0x13 ..\..\libs\ble\libbtstack.a(ad_parser.o)
 .riscv.attributes
                0x0000000000000000       0x32 ..\..\libs\ble\libbtstack.a(ad_parser.o)
 .data          0x0000000000000000        0x0 ..\..\libs\ble\libbtstack.a(hci_transport_h3_controller.o)
 .bss           0x0000000000000000       0x20 ..\..\libs\ble\libbtstack.a(hci_transport_h3_controller.o)
 .text.stack.h3c
                0x0000000000000000      0x1dc ..\..\libs\ble\libbtstack.a(hci_transport_h3_controller.o)
 .rodata.str1.4
                0x0000000000000000       0x16 ..\..\libs\ble\libbtstack.a(hci_transport_h3_controller.o)
 .com_text.stack.h3c
                0x0000000000000000       0x48 ..\..\libs\ble\libbtstack.a(hci_transport_h3_controller.o)
 .com_text.stack.util
                0x0000000000000000      0x136 ..\..\libs\ble\libbtstack.a(hci_transport_h3_controller.o)
 .text.btstack.hci.h3c.init
                0x0000000000000000       0x12 ..\..\libs\ble\libbtstack.a(hci_transport_h3_controller.o)
 .rodata        0x0000000000000000       0x20 ..\..\libs\ble\libbtstack.a(hci_transport_h3_controller.o)
 .com_rodata.stack.h3
                0x0000000000000000        0x2 ..\..\libs\ble\libbtstack.a(hci_transport_h3_controller.o)
 .hci.h3.huart  0x0000000000000000      0x10c ..\..\libs\ble\libbtstack.a(hci_transport_h3_controller.o)
 .sbss          0x0000000000000000       0x1c ..\..\libs\ble\libbtstack.a(hci_transport_h3_controller.o)
 .data          0x0000000000000000        0x0 ..\..\libs\ble\libbtstack.a(hci_transport_dummy.o)
 .bss           0x0000000000000000        0x0 ..\..\libs\ble\libbtstack.a(hci_transport_dummy.o)
 .data          0x0000000000000000        0x0 ..\..\libs\ble\libbtstack.a(btstack_hal.o)
 .bss           0x0000000000000000        0x0 ..\..\libs\ble\libbtstack.a(btstack_hal.o)
 .com_text.stack.uart_isr
                0x0000000000000000       0x6c ..\..\libs\ble\libbtstack.a(btstack_hal.o)
 .text.stack.hal
                0x0000000000000000       0xa4 ..\..\libs\ble\libbtstack.a(btstack_hal.o)
 .com_text.stack.util
                0x0000000000000000       0x12 ..\..\libs\ble\libbtstack.a(btstack_hal.o)
 .sbss          0x0000000000000000        0x8 ..\..\libs\ble\libbtstack.a(btstack_hal.o)
 .data          0x0000000000000000        0x0 ..\..\libs\ble\libbtstack.a(btstack_api.o)
 .bss           0x0000000000000000        0x0 ..\..\libs\ble\libbtstack.a(btstack_api.o)
 .com_text.ret.bb.sleep
                0x0000000000000000       0x1e ..\..\libs\ble\libbtstack.a(btstack_api.o)
 .com_sleep.sleep
                0x0000000000000000        0x8 ..\..\libs\ble\libbtstack.a(btstack_api.o)
 .data          0x0000000000000000        0x0 ..\..\libs\ble\libbtstack.a(ble_api.o)
 .bss           0x0000000000000000        0x0 ..\..\libs\ble\libbtstack.a(ble_api.o)
 .text.ble.api.conn.update
                0x0000000000000000       0xb8 ..\..\libs\ble\libbtstack.a(ble_api.o)
 .text.stack.sleep
                0x0000000000000000       0xac ..\..\libs\ble\libbtstack.a(ble_api.o)
 .text.ble.api.max_mtu
                0x0000000000000000        0x8 ..\..\libs\ble\libbtstack.a(ble_api.o)
 .text.ble.api.adv_is_en
                0x0000000000000000        0x8 ..\..\libs\ble\libbtstack.a(ble_api.o)
 .text.ble.api.adv_data.set
                0x0000000000000000       0x5c ..\..\libs\ble\libbtstack.a(ble_api.o)
 .text.ble.api.scan
                0x0000000000000000       0x5c ..\..\libs\ble\libbtstack.a(ble_api.o)
 .text.ble.api.adv_interval.set
                0x0000000000000000       0x56 ..\..\libs\ble\libbtstack.a(ble_api.o)
 .text.ble.api.adv.adv_interval.get
                0x0000000000000000       0x24 ..\..\libs\ble\libbtstack.a(ble_api.o)
 .text.ble.api.conn.ll_update
                0x0000000000000000        0xa ..\..\libs\ble\libbtstack.a(ble_api.o)
 .text.ble.api.conn_param.get
                0x0000000000000000        0x8 ..\..\libs\ble\libbtstack.a(ble_api.o)
 .text.ble.api.latency.dis
                0x0000000000000000       0x34 ..\..\libs\ble\libbtstack.a(ble_api.o)
 .text.ble.api.latency.en
                0x0000000000000000       0x34 ..\..\libs\ble\libbtstack.a(ble_api.o)
 .text.ble.api.adv
                0x0000000000000000        0x4 ..\..\libs\ble\libbtstack.a(ble_api.o)
 .text.ble.api.scan.dis
                0x0000000000000000        0x2 ..\..\libs\ble\libbtstack.a(ble_api.o)
 .text.ble.api.scan.en
                0x0000000000000000        0x2 ..\..\libs\ble\libbtstack.a(ble_api.o)
 .text.ble.api.scan.set
                0x0000000000000000        0x4 ..\..\libs\ble\libbtstack.a(ble_api.o)
 .text.ble.api.conn_do
                0x0000000000000000        0x4 ..\..\libs\ble\libbtstack.a(ble_api.o)
 .text.ble.api.rpa
                0x0000000000000000        0x2 ..\..\libs\ble\libbtstack.a(ble_api.o)
 .text.ble.api.rpa_en
                0x0000000000000000        0x2 ..\..\libs\ble\libbtstack.a(ble_api.o)
 .text.ble.api.rpa_add
                0x0000000000000000        0x2 ..\..\libs\ble\libbtstack.a(ble_api.o)
 .text.ble.api.rpa_dev
                0x0000000000000000        0x2 ..\..\libs\ble\libbtstack.a(ble_api.o)
 .text.ble.api.wlist_add
                0x0000000000000000        0x2 ..\..\libs\ble\libbtstack.a(ble_api.o)
 .text.ble.api.wlist_dev
                0x0000000000000000        0x2 ..\..\libs\ble\libbtstack.a(ble_api.o)
 .text.ble.api.wlist
                0x0000000000000000        0x4 ..\..\libs\ble\libbtstack.a(ble_api.o)
 .text.ble.api.sm.passkey
                0x0000000000000000       0x2c ..\..\libs\ble\libbtstack.a(ble_api.o)
 .text.ble.api.sm_req
                0x0000000000000000        0xe ..\..\libs\ble\libbtstack.a(ble_api.o)
 .text.ble.bond.delete_addr
                0x0000000000000000        0x8 ..\..\libs\ble\libbtstack.a(ble_api.o)
 .text.ble.bond.delete_index
                0x0000000000000000        0x8 ..\..\libs\ble\libbtstack.a(ble_api.o)
 .text.ble.bond.delete_all
                0x0000000000000000        0x8 ..\..\libs\ble\libbtstack.a(ble_api.o)
 .text.ble.bond.get_cnt
                0x0000000000000000       0x1c ..\..\libs\ble\libbtstack.a(ble_api.o)
 .text.ble.bond.get_info
                0x0000000000000000        0x8 ..\..\libs\ble\libbtstack.a(ble_api.o)
 .text.ble.bond.get_index
                0x0000000000000000        0x8 ..\..\libs\ble\libbtstack.a(ble_api.o)
 .text.ble.api.get_rssi
                0x0000000000000000        0x8 ..\..\libs\ble\libbtstack.a(ble_api.o)
 .text.ble.set_static_addr
                0x0000000000000000       0x48 ..\..\libs\ble\libbtstack.a(ble_api.o)
 .text.ble.single_mode
                0x0000000000000000       0x48 ..\..\libs\ble\libbtstack.a(ble_api.o)
 .data          0x0000000000000000        0x0 ..\..\libs\ble\libbtstack.a(txpkt.o)
 .bss           0x0000000000000000        0x0 ..\..\libs\ble\libbtstack.a(txpkt.o)
 .text          0x0000000000000000        0x0 ..\..\libs\ble\libbtstack.a(platform.o)
 .data          0x0000000000000000        0x0 ..\..\libs\ble\libbtstack.a(platform.o)
 .bss           0x0000000000000000        0x0 ..\..\libs\ble\libbtstack.a(platform.o)
 .com_text.bb.dbg.bt21
                0x0000000000000000        0x4 ..\..\libs\ble\libbtstack.a(platform.o)
 .data          0x0000000000000000        0x0 ..\..\libs\ble\libbtstack.a(rf.o)
 .bss           0x0000000000000000        0x0 ..\..\libs\ble\libbtstack.a(rf.o)
 .com_text.bb.isr.lv
                0x0000000000000000       0x3e ..\..\libs\ble\libbtstack.a(rf.o)
 .com_text.bb.isr.dbm
                0x0000000000000000       0x12 ..\..\libs\ble\libbtstack.a(rf.o)
 .com_sleep.bb  0x0000000000000000       0xae ..\..\libs\ble\libbtstack.a(rf.o)
 .btmem.rf.dc   0x0000000000000000       0x48 ..\..\libs\ble\libbtstack.a(rf.o)
 .com_rodata.bb.tbl
                0x0000000000000000        0x8 ..\..\libs\ble\libbtstack.a(rf.o)
 .sbss          0x0000000000000000        0x1 ..\..\libs\ble\libbtstack.a(rf.o)
 .data          0x0000000000000000        0x0 ..\..\libs\ble\libbtstack.a(hct_proc.o)
 .bss           0x0000000000000000        0x0 ..\..\libs\ble\libbtstack.a(hct_proc.o)
 .data          0x0000000000000000        0x0 ..\..\libs\ble\libbtstack.a(hct.o)
 .bss           0x0000000000000000        0x0 ..\..\libs\ble\libbtstack.a(hct.o)
 .data          0x0000000000000000        0x0 ..\..\libs\ble\libbtstack.a(mgr_hci.o)
 .bss           0x0000000000000000        0x0 ..\..\libs\ble\libbtstack.a(mgr_hci.o)
 .data          0x0000000000000000        0x0 ..\..\libs\ble\libbtstack.a(mgr.o)
 .bss           0x0000000000000000        0x0 ..\..\libs\ble\libbtstack.a(mgr.o)
 .data          0x0000000000000000        0x0 ..\..\libs\ble\libbtstack.a(ll_adv.o)
 .bss           0x0000000000000000        0x0 ..\..\libs\ble\libbtstack.a(ll_adv.o)
 .data          0x0000000000000000        0x0 ..\..\libs\ble\libbtstack.a(ll_con_upd.o)
 .bss           0x0000000000000000        0x0 ..\..\libs\ble\libbtstack.a(ll_con_upd.o)
 .data          0x0000000000000000        0x0 ..\..\libs\ble\libbtstack.a(ll_cntl.o)
 .bss           0x0000000000000000        0x0 ..\..\libs\ble\libbtstack.a(ll_cntl.o)
 .text          0x0000000000000000        0x0 ..\..\libs\ble\libbtstack.a(ll_clk_acc.o)
 .data          0x0000000000000000        0x0 ..\..\libs\ble\libbtstack.a(ll_clk_acc.o)
 .bss           0x0000000000000000        0x0 ..\..\libs\ble\libbtstack.a(ll_clk_acc.o)
 .data          0x0000000000000000        0x0 ..\..\libs\ble\libbtstack.a(ll_chmap_upd.o)
 .bss           0x0000000000000000        0x0 ..\..\libs\ble\libbtstack.a(ll_chmap_upd.o)
 .text          0x0000000000000000        0x0 ..\..\libs\ble\libbtstack.a(ll.o)
 .data          0x0000000000000000        0x0 ..\..\libs\ble\libbtstack.a(ll.o)
 .bss           0x0000000000000000        0x0 ..\..\libs\ble\libbtstack.a(ll.o)
 .data          0x0000000000000000        0x0 ..\..\libs\ble\libbtstack.a(ble_hal.o)
 .bss           0x0000000000000000        0x0 ..\..\libs\ble\libbtstack.a(ble_hal.o)
 .data          0x0000000000000000        0x0 ..\..\libs\ble\libbtstack.a(ble_con.o)
 .bss           0x0000000000000000        0x0 ..\..\libs\ble\libbtstack.a(ble_con.o)
 .com_rodata.bb.tbl
                0x0000000000000000       0x10 ..\..\libs\ble\libbtstack.a(ble_con.o)
 .data          0x0000000000000000        0x0 ..\..\libs\ble\libbtstack.a(ble_adv.o)
 .bss           0x0000000000000000        0x0 ..\..\libs\ble\libbtstack.a(ble_adv.o)
 .data          0x0000000000000000        0x0 ..\..\libs\ble\libbtstack.a(ble_buf.o)
 .text          0x0000000000000000       0x3e ..\..\libs\ble\libbtstack.a(bb_utils.o)
 .data          0x0000000000000000        0x0 ..\..\libs\ble\libbtstack.a(bb_utils.o)
 .bss           0x0000000000000000        0x0 ..\..\libs\ble\libbtstack.a(bb_utils.o)
 .com_rodata.bb.tbl.r2m
                0x0000000000000000        0x4 ..\..\libs\ble\libbtstack.a(bb_utils.o)
 .com_rodata.bb.tbl.rate.dur
                0x0000000000000000        0x5 ..\..\libs\ble\libbtstack.a(bb_utils.o)
 .srodata       0x0000000000000000        0x5 ..\..\libs\ble\libbtstack.a(bb_utils.o)
 .data          0x0000000000000000        0x0 ..\..\libs\ble\libbtstack.a(bb_int.o)
 .bss           0x0000000000000000        0x0 ..\..\libs\ble\libbtstack.a(bb_int.o)
 .com_text.bb.hs_get
                0x0000000000000000       0x22 ..\..\libs\ble\libbtstack.a(bb_int.o)
 .com_sleep.bb  0x0000000000000000      0x1d2 ..\..\libs\ble\libbtstack.a(bb_int.o)
 .data          0x0000000000000000        0x0 ..\..\libs\ble\libbtstack.a(bb.o)
 .bss           0x0000000000000000        0x0 ..\..\libs\ble\libbtstack.a(bb.o)
 .text          0x0000000000000000        0x0 ..\..\libs\ble\libbtstack.a(periph.o)
 .data          0x0000000000000000        0x0 ..\..\libs\ble\libbtstack.a(periph.o)
 .bss           0x0000000000000000        0x0 ..\..\libs\ble\libbtstack.a(periph.o)
 .text.huart    0x0000000000000000        0x4 ..\..\libs\ble\libbtstack.a(periph.o)
 .com_text.huart
                0x0000000000000000       0x10 ..\..\libs\ble\libbtstack.a(periph.o)
 .comment       0x0000000000000000       0x13 ..\..\libs\ble\libbtstack.a(periph.o)
 .riscv.attributes
                0x0000000000000000       0x32 ..\..\libs\ble\libbtstack.a(periph.o)
 .data          0x0000000000000000        0x0 ..\..\libs\ble\libbtstack.a(extern_ble.o)
 .bss           0x0000000000000000        0x0 ..\..\libs\ble\libbtstack.a(extern_ble.o)
 .sbss          0x0000000000000000        0x1 ..\..\libs\ble\libbtstack.a(extern_ble.o)
 .data          0x0000000000000000        0x0 ..\..\libs\ble\libbtstack.a(l2cap.o)
 .bss           0x0000000000000000        0x0 ..\..\libs\ble\libbtstack.a(l2cap.o)
 .text.stack.l2cap.connectionless
                0x0000000000000000       0x58 ..\..\libs\ble\libbtstack.a(l2cap.o)
 .text.l2cap.mtu_max
                0x0000000000000000        0x6 ..\..\libs\ble\libbtstack.a(l2cap.o)
 .text.l2cap.mtu_set
                0x0000000000000000       0x18 ..\..\libs\ble\libbtstack.a(l2cap.o)
 .text          0x0000000000000000       0x18 ..\..\libs\ble\libbtstack.a(hci_dump.o)
 .data          0x0000000000000000        0xc ..\..\libs\ble\libbtstack.a(hci_dump.o)
 .bss           0x0000000000000000        0x0 ..\..\libs\ble\libbtstack.a(hci_dump.o)
 .rodata.str1.4
                0x0000000000000000       0x12 ..\..\libs\ble\libbtstack.a(hci_dump.o)
 .text.stack.util
                0x0000000000000000       0x82 ..\..\libs\ble\libbtstack.a(hci_dump.o)
 .text          0x0000000000000000        0x0 ..\..\libs\ble\libbtstack.a(hci_cmd.o)
 .data          0x0000000000000000        0x0 ..\..\libs\ble\libbtstack.a(hci_cmd.o)
 .bss           0x0000000000000000        0x0 ..\..\libs\ble\libbtstack.a(hci_cmd.o)
 .rodata.stack.hci_send.ch
                0x0000000000000000        0x8 ..\..\libs\ble\libbtstack.a(hci_cmd.o)
 .rodata.stack.hci_send.chm
                0x0000000000000000        0x8 ..\..\libs\ble\libbtstack.a(hci_cmd.o)
 .rodata.stack.hci_send.featrue
                0x0000000000000000        0x8 ..\..\libs\ble\libbtstack.a(hci_cmd.o)
 .rodata.stack.hci_send.read_sugg_len
                0x0000000000000000        0x8 ..\..\libs\ble\libbtstack.a(hci_cmd.o)
 .rodata.stack.hci_send.rx_test
                0x0000000000000000        0x8 ..\..\libs\ble\libbtstack.a(hci_cmd.o)
 .rodata.stack.hci_send.set_len
                0x0000000000000000        0x8 ..\..\libs\ble\libbtstack.a(hci_cmd.o)
 .rodata.stack.hci_send.sup_sta
                0x0000000000000000        0x8 ..\..\libs\ble\libbtstack.a(hci_cmd.o)
 .rodata.stack.hci_send.test_end
                0x0000000000000000        0x8 ..\..\libs\ble\libbtstack.a(hci_cmd.o)
 .rodata.stack.hci_send.tx_test
                0x0000000000000000        0x8 ..\..\libs\ble\libbtstack.a(hci_cmd.o)
 .srodata       0x0000000000000000        0x8 ..\..\libs\ble\libbtstack.a(hci_cmd.o)
 .data          0x0000000000000000        0x0 ..\..\libs\ble\libbtstack.a(btstack_run_loop.o)
 .bss           0x0000000000000000        0x0 ..\..\libs\ble\libbtstack.a(btstack_run_loop.o)
 .com_text.stack.api
                0x0000000000000000        0xc ..\..\libs\ble\libbtstack.a(btstack_run_loop.o)
 .text          0x0000000000000000       0x40 ..\..\libs\ble\libbtstack.a(btstack_memory.o)
 .data          0x0000000000000000        0x0 ..\..\libs\ble\libbtstack.a(btstack_memory.o)
 .bss           0x0000000000000000       0x6c ..\..\libs\ble\libbtstack.a(btstack_memory.o)
 .text.stack.memory
                0x0000000000000000       0x12 ..\..\libs\ble\libbtstack.a(btstack_memory.o)
 .text.stack.setup
                0x0000000000000000        0x2 ..\..\libs\ble\libbtstack.a(btstack_memory.o)
 .sbss          0x0000000000000000        0x4 ..\..\libs\ble\libbtstack.a(btstack_memory.o)
 .comment       0x0000000000000000       0x13 ..\..\libs\ble\libbtstack.a(btstack_memory.o)
 .riscv.attributes
                0x0000000000000000       0x32 ..\..\libs\ble\libbtstack.a(btstack_memory.o)
 .data          0x0000000000000000        0x0 ..\..\libs\ble\libbtstack.a(btstack_main.o)
 .bss           0x0000000000000000        0x0 ..\..\libs\ble\libbtstack.a(btstack_main.o)
 .data          0x0000000000000000        0x0 ..\..\libs\ble\libbtstack.a(nanos.o)
 .bss           0x0000000000000000        0x0 ..\..\libs\ble\libbtstack.a(nanos.o)
 .com_text.ret.bb
                0x0000000000000000        0x2 ..\..\libs\ble\libbtstack.a(nanos.o)
 .data          0x0000000000000000        0x0 ..\..\libs\ble\libbtstack.a(bb_sche.o)
 .com_sleep.bb  0x0000000000000000        0xa ..\..\libs\ble\libbtstack.a(bb_sche.o)
 .data          0x0000000000000000        0x0 ..\..\libs\ble\libbtstack.a(patch.o)
 .bss           0x0000000000000000        0x0 ..\..\libs\ble\libbtstack.a(patch.o)
 .text          0x0000000000000000        0x0 ..\..\libs\ble\libbtstack.a(bb_dbg.o)
 .data          0x0000000000000000        0x0 ..\..\libs\ble\libbtstack.a(bb_dbg.o)
 .bss           0x0000000000000000        0x0 ..\..\libs\ble\libbtstack.a(bb_dbg.o)
 .com_text.spi_init
                0x0000000000000000       0x60 ..\..\libs\ble\libbtstack.a(bb_dbg.o)
 .com_text.bb.putc
                0x0000000000000000       0x60 ..\..\libs\ble\libbtstack.a(bb_dbg.o)
 .text          0x0000000000000000        0x0 ..\..\libs\ble\libbtstack.a(bb_clk.o)
 .data          0x0000000000000000        0x0 ..\..\libs\ble\libbtstack.a(bb_clk.o)
 .bss           0x0000000000000000        0x0 ..\..\libs\ble\libbtstack.a(bb_clk.o)
 .text          0x0000000000000000        0x0 ..\..\libs\ble\libbtstack.a(aes.o)
 .data          0x0000000000000000        0x0 ..\..\libs\ble\libbtstack.a(aes.o)
 .com_text.bb.isr
                0x0000000000000000       0x28 ..\..\libs\ble\libbtstack.a(aes.o)
 .text.bb.aes.ecpy
                0x0000000000000000       0xe8 ..\..\libs\ble\libbtstack.a(aes.o)
 .data          0x0000000000000000        0x0 ..\..\libs\ble\libbtstack.a(extern.o)
 .bss           0x0000000000000000        0x0 ..\..\libs\ble\libbtstack.a(extern.o)
 .text.bsp.param
                0x0000000000000000        0x2 ..\..\libs\ble\libbtstack.a(extern.o)
 .com_sleep.sleep
                0x0000000000000000        0x2 ..\..\libs\ble\libbtstack.a(extern.o)
 .com_sleep.bb  0x0000000000000000        0x8 ..\..\libs\ble\libbtstack.a(extern.o)
 .com_text.ble.phy
                0x0000000000000000        0x4 ..\..\libs\ble\libbtstack.a(extern.o)
 .data          0x0000000000000000        0x0 ..\..\libs\ble\libbtstack.a(vs.o)
 .bss           0x0000000000000000        0x0 ..\..\libs\ble\libbtstack.a(vs.o)
 .bss           0x0000000000000000        0x0 ..\..\libs\ble\libbtstack.a(rf_mate.o)
 .text.rf.vddvco.set
                0x0000000000000000       0x18 ..\..\libs\ble\libbtstack.a(rf_mate.o)
 .text.rf.vddvco.get
                0x0000000000000000        0xa ..\..\libs\ble\libbtstack.a(rf_mate.o)
 .text.rf.pll.set
                0x0000000000000000       0x12 ..\..\libs\ble\libbtstack.a(rf_mate.o)
 .text.rf.tx_pwr.set
                0x0000000000000000      0x10a ..\..\libs\ble\libbtstack.a(rf_mate.o)
 .data          0x0000000000000000        0x0 ..\..\libs\ble\libbtstack.a(ble_hook.o)
 .bss           0x0000000000000000        0x0 ..\..\libs\ble\libbtstack.a(ble_hook.o)
 .data          0x0000000000000000        0x0 ..\..\libs\ble\libbtstack.a(adv_hook.o)
 .bss           0x0000000000000000        0x0 ..\..\libs\ble\libbtstack.a(adv_hook.o)
 .text          0x0000000000000000        0x0 ..\..\libs\ble\libbtstack.a(hct_tl.o)
 .data          0x0000000000000000        0x0 ..\..\libs\ble\libbtstack.a(hct_tl.o)
 .bss           0x0000000000000000        0x0 ..\..\libs\ble\libbtstack.a(hct_tl.o)
 .com_text.bb.sleep
                0x0000000000000000        0x4 ..\..\libs\ble\libbtstack.a(hct_tl.o)
 .comment       0x0000000000000000       0x13 ..\..\libs\ble\libbtstack.a(hct_tl.o)
 .riscv.attributes
                0x0000000000000000       0x32 ..\..\libs\ble\libbtstack.a(hct_tl.o)
 .data          0x0000000000000000        0x0 ..\..\libs\ble\libbtstack.a(hct_msg.o)
 .bss           0x0000000000000000        0x0 ..\..\libs\ble\libbtstack.a(hct_msg.o)
 .data          0x0000000000000000        0x0 ..\..\libs\ble\libbtstack.a(mgr_test.o)
 .bss           0x0000000000000000        0x0 ..\..\libs\ble\libbtstack.a(mgr_test.o)
 .data          0x0000000000000000        0x0 ..\..\libs\ble\libbtstack.a(mgr_proc.o)
 .bss           0x0000000000000000        0x0 ..\..\libs\ble\libbtstack.a(mgr_proc.o)
 .data          0x0000000000000000        0x0 ..\..\libs\ble\libbtstack.a(ll_version.o)
 .bss           0x0000000000000000        0x0 ..\..\libs\ble\libbtstack.a(ll_version.o)
 .data          0x0000000000000000        0x0 ..\..\libs\ble\libbtstack.a(ll_tbox_prod_test.o)
 .bss           0x0000000000000000        0x0 ..\..\libs\ble\libbtstack.a(ll_tbox_prod_test.o)
 .data          0x0000000000000000        0x0 ..\..\libs\ble\libbtstack.a(ll_tbox_freq_cal.o)
 .data          0x0000000000000000        0x0 ..\..\libs\ble\libbtstack.a(ll_tbox_feature.o)
 .bss           0x0000000000000000        0x0 ..\..\libs\ble\libbtstack.a(ll_tbox_feature.o)
 .data          0x0000000000000000        0x0 ..\..\libs\ble\libbtstack.a(ll_proc.o)
 .bss           0x0000000000000000        0x0 ..\..\libs\ble\libbtstack.a(ll_proc.o)
 .data          0x0000000000000000        0x0 ..\..\libs\ble\libbtstack.a(ll_phy_upd.o)
 .bss           0x0000000000000000        0x0 ..\..\libs\ble\libbtstack.a(ll_phy_upd.o)
 .data          0x0000000000000000        0x0 ..\..\libs\ble\libbtstack.a(ll_length.o)
 .bss           0x0000000000000000        0x0 ..\..\libs\ble\libbtstack.a(ll_length.o)
 .data          0x0000000000000000        0x0 ..\..\libs\ble\libbtstack.a(ll_feature.o)
 .bss           0x0000000000000000        0x0 ..\..\libs\ble\libbtstack.a(ll_feature.o)
 .data          0x0000000000000000        0x0 ..\..\libs\ble\libbtstack.a(ll_encrypt.o)
 .bss           0x0000000000000000        0x0 ..\..\libs\ble\libbtstack.a(ll_encrypt.o)
 .data          0x0000000000000000        0x0 ..\..\libs\ble\libbtstack.a(ll_disconnect.o)
 .bss           0x0000000000000000        0x0 ..\..\libs\ble\libbtstack.a(ll_disconnect.o)
 .data          0x0000000000000000        0x0 ..\..\libs\ble\libbtstack.a(ble_test.o)
 .bss           0x0000000000000000        0x0 ..\..\libs\ble\libbtstack.a(ble_test.o)
 .data          0x0000000000000000        0x0 ..\..\libs\ble\libbtstack.a(ble.o)
 .bss           0x0000000000000000        0x0 ..\..\libs\ble\libbtstack.a(ble.o)
 .text          0x0000000000000000        0x0 ..\..\libs\ble\libbtstack.a(bb_sleep.o)
 .data          0x0000000000000000        0x0 ..\..\libs\ble\libbtstack.a(bb_sleep.o)
 .bss           0x0000000000000000        0x0 ..\..\libs\ble\libbtstack.a(bb_sleep.o)
 .com_sleep.bb  0x0000000000000000       0xa2 ..\..\libs\ble\libbtstack.a(bb_sleep.o)
 .comment       0x0000000000000000       0x13 ..\..\libs\ble\libbtstack.a(bb_sleep.o)
 .riscv.attributes
                0x0000000000000000       0x32 ..\..\libs\ble\libbtstack.a(bb_sleep.o)
 .text          0x0000000000000000        0x0 ..\..\libs\ble\libbtstack.a(bb_alarm.o)
 .data          0x0000000000000000        0x0 ..\..\libs\ble\libbtstack.a(bb_alarm.o)
 .bss           0x0000000000000000        0x0 ..\..\libs\ble\libbtstack.a(bb_alarm.o)
 .com_text.bb.isr.nest
                0x0000000000000000        0xa ..\..\libs\ble\libbtstack.a(bb_alarm.o)
 .com_text.bb.timer.check
                0x0000000000000000       0x20 ..\..\libs\ble\libbtstack.a(bb_alarm.o)
 .com_text.bb.timer.push
                0x0000000000000000       0x78 ..\..\libs\ble\libbtstack.a(bb_alarm.o)
 .text          0x0000000000000000        0x0 ..\..\libs\ble\libbtstack.a(l2cap_signaling.o)
 .data          0x0000000000000000        0x0 ..\..\libs\ble\libbtstack.a(l2cap_signaling.o)
 .bss           0x0000000000000000        0x0 ..\..\libs\ble\libbtstack.a(l2cap_signaling.o)
 .text          0x0000000000000000        0x0 ..\..\libs\ble\libbtstack.a(btstack_memory_pool.o)
 .data          0x0000000000000000        0x0 ..\..\libs\ble\libbtstack.a(btstack_memory_pool.o)
 .bss           0x0000000000000000        0x0 ..\..\libs\ble\libbtstack.a(btstack_memory_pool.o)
 .text.stack.memory
                0x0000000000000000       0x54 ..\..\libs\ble\libbtstack.a(btstack_memory_pool.o)
 .comment       0x0000000000000000       0x13 ..\..\libs\ble\libbtstack.a(btstack_memory_pool.o)
 .riscv.attributes
                0x0000000000000000       0x32 ..\..\libs\ble\libbtstack.a(btstack_memory_pool.o)
 .text          0x0000000000000000        0x0 ..\..\libs\ble\libbtstack.a(patch_asm.o)
 .data          0x0000000000000000        0x0 ..\..\libs\ble\libbtstack.a(patch_asm.o)
 .bss           0x0000000000000000        0x0 ..\..\libs\ble\libbtstack.a(patch_asm.o)
 .data          0x0000000000000000        0x0 ..\..\libs\ble\libbtstack.a(vs_proc.o)
 .bss           0x0000000000000000        0x0 ..\..\libs\ble\libbtstack.a(vs_proc.o)
 .text          0x0000000000000000        0x0 ..\..\libs\ble\libbtstack.a(vs_fcc.o)
 .data          0x0000000000000000        0x0 ..\..\libs\ble\libbtstack.a(vs_fcc.o)
 .bss           0x0000000000000000        0x0 ..\..\libs\ble\libbtstack.a(vs_fcc.o)
 .data          0x0000000000000000        0x0 ..\..\libs\ble\libbtstack.a(ble_sync.o)
 .bss           0x0000000000000000        0x0 ..\..\libs\ble\libbtstack.a(ble_sync.o)
 .data          0x0000000000000000        0x0 ..\..\libs\ble\libbtstack.a(ble_scan.o)
 .bss           0x0000000000000000        0x0 ..\..\libs\ble\libbtstack.a(ble_scan.o)
 .data          0x0000000000000000        0x0 ..\..\libs\ble\libbtstack.a(ble_init.o)
 .bss           0x0000000000000000        0x0 ..\..\libs\ble\libbtstack.a(ble_init.o)

Memory Configuration

Name             Origin             Length             Attributes
init             0x0000000010000000 0x0000000000000200
flash            0x0000000010000200 0x000000000003e000 xr
stack            0x0000000000010800 0x0000000000000400
sram             0x0000000000010c00 0x0000000000005400
pdn_comm         0x0000000000010c00 0x0000000000000400
*default*        0x0000000000000000 0xffffffffffffffff

Linker script and memory map

LOAD Output\obj\driver\driver_clk.o
LOAD Output\obj\driver\driver_gpio.o
LOAD Output\obj\driver\driver_hsuart.o
LOAD Output\obj\driver\driver_keyscan.o
LOAD Output\obj\driver\driver_ledc.o
LOAD Output\obj\driver\driver_lowpwr.o
LOAD Output\obj\driver\driver_rtc.o
LOAD Output\obj\driver\driver_saradc.o
LOAD Output\obj\driver\driver_spi.o
LOAD Output\obj\driver\driver_tmr.o
LOAD Output\obj\driver\driver_uart.o
LOAD Output\obj\driver\driver_wdt.o
LOAD Output\obj\project\ble_peripheral\app\func.o
LOAD Output\obj\project\ble_peripheral\app\func_bt.o
LOAD Output\obj\project\ble_peripheral\app\func_idle.o
LOAD Output\obj\project\ble_peripheral\app\func_iodm.o
LOAD Output\obj\project\ble_peripheral\app\func_le_bqb_rf.o
LOAD Output\obj\project\ble_peripheral\app\func_le_fcc.o
LOAD Output\obj\project\ble_peripheral\app\func_lowpwr.o
LOAD Output\obj\project\ble_peripheral\app\func_tbox.o
LOAD Output\obj\project\ble_peripheral\ble\ble_adv.o
LOAD Output\obj\project\ble_peripheral\ble\ble_alarm.o
LOAD Output\obj\project\ble_peripheral\ble\ble_client.o
LOAD Output\obj\project\ble_peripheral\ble\ble_fota_service.o
LOAD Output\obj\project\ble_peripheral\ble\ble_init.o
LOAD Output\obj\project\ble_peripheral\ble\ble_proc.o
LOAD Output\obj\project\ble_peripheral\ble\ble_profile.o
LOAD Output\obj\project\ble_peripheral\ble\ble_service.o
LOAD Output\obj\project\ble_peripheral\ble\ble_user_service.o
LOAD Output\obj\project\ble_peripheral\bsp\bsp_huart.o
LOAD Output\obj\project\ble_peripheral\bsp\bsp_huart_iodm.o
LOAD Output\obj\project\ble_peripheral\bsp\bsp_io_key.o
LOAD Output\obj\project\ble_peripheral\bsp\bsp_key.o
LOAD Output\obj\project\ble_peripheral\bsp\bsp_param.o
LOAD Output\obj\project\ble_peripheral\bsp\bsp_saradc.o
LOAD Output\obj\project\ble_peripheral\bsp\bsp_saradc_key.o
LOAD Output\obj\project\ble_peripheral\bsp\bsp_saradc_tsen.o
LOAD Output\obj\project\ble_peripheral\bsp\bsp_saradc_vbat.o
LOAD Output\obj\project\ble_peripheral\bsp\bsp_sys.o
LOAD Output\obj\project\ble_peripheral\bsp\bsp_uart_debug.o
LOAD Output\obj\project\ble_peripheral\bsp\bsp_uart_transfer.o
LOAD Output\obj\project\ble_peripheral\main.o
LOAD Output\obj\project\ble_peripheral\prod_test\iodm\prod_test_iodm.o
LOAD Output\obj\project\ble_peripheral\prod_test\prod_test.o
LOAD Output\obj\project\ble_peripheral\prod_test\tbox\prod_test_tbox.o
LOAD Output\obj\project\ble_peripheral\prod_test\tbox\tbox_key.o
LOAD Output\obj\project\ble_peripheral\strong_ble.o
LOAD Output\obj\project\ble_peripheral\strong_symbol.o
                0x000000000003e000                __max_flash_size = 0x3e000
                0x0000000010000000                __base = 0x10000000
                0x0000000000010600                __cache_stack_vma = 0x10600
                0x0000000000000200                __cache_stack_size = 0x200
                0x0000000000010800                __stack_vma = 0x10800
                0x0000000000000400                __stack_ram_size = 0x400
                0x0000000000010c00                __sram_vma = 0x10c00
                0x0000000000005400                __sram_ram_size = 0x5400
                0x0000000000013b00                __comm_vma = __comm_start
                0x0000000000000400                __pdn_comm_ram_size = 0x400
                0x0000000000010c00                __pdn_comm_vma = __sram_vma

.init           0x0000000010000000       0x4e
 *(.reset)
 .reset         0x0000000010000000       0x4e ..\..\libs\cpu\libplatform.a(reset.o)
                0x0000000010000000                _start

.bss            0x0000000000010c00     0x2f00
                0x0000000000010c00                __bss_start = .
 *(.btmem.bthw)
 .btmem.bthw    0x0000000000010c00      0x6d4 ..\..\libs\ble\libbtstack.a(bb.o)
                0x0000000000010c00                bthw_mem
 *(.btmem*)
 .btmem.cache.stack.hci
                0x00000000000112d4      0x10b ..\..\libs\ble\libbtstack.a(hci.o)
 *fill*         0x00000000000113df        0x1 
 .btmem.stack.hci_buf
                0x00000000000113e0      0x1f4 ..\..\libs\ble\libbtstack.a(hci.o)
 .btmem.stack.util
                0x00000000000115d4       0x12 ..\..\libs\ble\libbtstack.a(btstack_util.o)
 *fill*         0x00000000000115e6        0x2 
 .btmem.hci.transport.h3
                0x00000000000115e8        0x4 ..\..\libs\ble\libbtstack.a(hci_transport_h3_controller.o)
                0x00000000000115e8                p_hci_transport
 .btmem.hct.env
                0x00000000000115ec       0x40 ..\..\libs\ble\libbtstack.a(hct_proc.o)
 .btmem.bb.hci  0x000000000001162c        0x2 ..\..\libs\ble\libbtstack.a(hct.o)
                0x000000000001162c                hci_env
 *fill*         0x000000000001162e        0x2 
 .btmem.ble.lm  0x0000000000011630       0xc4 ..\..\libs\ble\libbtstack.a(mgr.o)
                0x0000000000011630                mgr_env
 .btmem.ble.lc  0x00000000000116f4        0x8 ..\..\libs\ble\libbtstack.a(ll.o)
                0x00000000000116f4                ll_env
 .btmem.ble.hal
                0x00000000000116fc      0x124 ..\..\libs\ble\libbtstack.a(ble_hal.o)
                0x00000000000116fc                ble_env
                0x0000000000011818                ble_exp_sync_pos_tab
 .btmem.ble.con
                0x0000000000011820        0x8 ..\..\libs\ble\libbtstack.a(ble_con.o)
                0x0000000000011820                ble_con_env
 .btmem.ble.adv
                0x0000000000011828        0x8 ..\..\libs\ble\libbtstack.a(ble_adv.o)
 .btmem.ble.buf
                0x0000000000011830       0x30 ..\..\libs\ble\libbtstack.a(ble_buf.o)
 .btmem.bb.env  0x0000000000011860       0x60 ..\..\libs\ble\libbtstack.a(bb_int.o)
                0x0000000000011860                bb_env
 .btmem.alloc.bb.buf
                0x00000000000118c0      0x540 ..\..\libs\ble\libbtstack.a(bb.o)
 .btmem.bb.buf  0x0000000000011e00      0x1fc ..\..\libs\ble\libbtstack.a(bb.o)
 .btmem.bb.rf   0x0000000000011ffc        0x3 ..\..\libs\ble\libbtstack.a(bb.o)
                0x0000000000011ffc                rf_api
 *fill*         0x0000000000011fff        0x1 
 .btmem.stack   0x0000000000012000       0x14 ..\..\libs\ble\libbtstack.a(btstack_run_loop.o)
 .btmem.bb.buf  0x0000000000012014       0x34 ..\..\libs\ble\libbtstack.a(nanos.o)
 .btmem.ble.test
                0x0000000000012048        0x4 ..\..\libs\ble\libbtstack.a(ble_test.o)
 .btmem.bb.ble.tbl
                0x000000000001204c       0x10 ..\..\libs\ble\libbtstack.a(ble.o)
 .btmem.bb.timer
                0x000000000001205c        0x8 ..\..\libs\ble\libbtstack.a(bb_alarm.o)
 .btmem.bb.vs   0x0000000000012064        0xd ..\..\libs\ble\libbtstack.a(vs_proc.o)
                0x0000000000012064                vs_env
 *(.osmem*)
 *fill*         0x0000000000012071        0x3 
 .osmem         0x0000000000012074      0xc48 Output\obj\project\ble_peripheral\strong_symbol.o
                0x0000000000012074                mem_heap
 *(COMMON)
 COMMON         0x0000000000012cbc      0x304 Output\obj\project\ble_peripheral\ble\ble_user_service.o
                0x0000000000012cbc                ble_user_cb
 COMMON         0x0000000000012fc0       0x37 Output\obj\project\ble_peripheral\bsp\bsp_sys.o
                0x0000000000012fc0                tmr5ms_cnt
                0x0000000000012fc4                xcfg_cb
 *(.bss*)
 *fill*         0x0000000000012ff7        0x1 
 .bss.periph.saradc
                0x0000000000012ff8       0x24 Output\obj\driver\driver_saradc.o
 .bss           0x000000000001301c       0x14 Output\obj\project\ble_peripheral\ble\ble_user_service.o
 .bss           0x0000000000013030      0x200 Output\obj\project\ble_peripheral\bsp\bsp_uart_transfer.o
 .bss.cm        0x0000000000013230      0x14c ..\..\libs\cpu\libplatform.a(cm.o)
                0x0000000000013230                cm
 .bss.sys       0x000000000001337c       0x18 ..\..\libs\cpu\libplatform.a(main.o)
                0x000000000001337c                sys
 .bss.irq_tbl   0x0000000000013394       0x88 ..\..\libs\cpu\libplatform.a(interrupt.o)
 .bss.sys.timer
                0x000000000001341c        0x8 ..\..\libs\cpu\libplatform.a(interrupt.o)
 .bss.btstack   0x0000000000013424        0x4 ..\..\libs\cpu\libplatform.a(startup.o)
                0x0000000000013424                pmq_btstack
 .bss           0x0000000000013428       0x30 ..\..\libs\ble\libbtstack.a(sm.o)
 .bss.hct.env   0x0000000000013458       0x18 ..\..\libs\ble\libbtstack.a(hct_proc.o)
 .bss           0x0000000000013470       0x68 ..\..\libs\ble\libbtstack.a(ble_buf.o)
 .bss.stack.l2cap
                0x00000000000134d8       0x3c ..\..\libs\ble\libbtstack.a(l2cap.o)
 .bss           0x0000000000013514      0x128 ..\..\libs\ble\libbtstack.a(bb_sche.o)
 .bss           0x000000000001363c        0xc ..\..\libs\ble\libbtstack.a(aes.o)
                0x000000000001363c                aes_env
 .bss           0x0000000000013648       0x28 ..\..\libs\ble\libbtstack.a(ll_tbox_freq_cal.o)
 .bss.bb.timer  0x0000000000013670        0x1 ..\..\libs\ble\libbtstack.a(bb_alarm.o)
 *(.sbss*)
 *fill*         0x0000000000013671        0x3 
 .sbss          0x0000000000013674        0x4 Output\obj\project\ble_peripheral\ble\ble_init.o
                0x0000000000013674                cfg_bt_work_mode
 .sbss          0x0000000000013678        0x2 Output\obj\project\ble_peripheral\ble\ble_user_service.o
 *fill*         0x000000000001367a        0x2 
 .sbss          0x000000000001367c        0xc Output\obj\project\ble_peripheral\bsp\bsp_uart_transfer.o
 .sbss.spi_baud_r
                0x0000000000013688        0x4 ..\..\libs\cpu\libplatform.a(os_flash.o)
                0x0000000000013688                spi_baud_r
 .sbss.spi_baud_w
                0x000000000001368c        0x4 ..\..\libs\cpu\libplatform.a(os_flash.o)
                0x000000000001368c                spi_baud_w
 .sbss.pmutex_clk
                0x0000000000013690        0x4 ..\..\libs\cpu\libplatform.a(startup.o)
                0x0000000000013690                pmutex_clk
 .sbss.pmutex_cm
                0x0000000000013694        0x4 ..\..\libs\cpu\libplatform.a(startup.o)
                0x0000000000013694                pmutex_cm
 .sbss.psem_btstack
                0x0000000000013698        0x4 ..\..\libs\cpu\libplatform.a(startup.o)
                0x0000000000013698                psem_btstack
 .sbss.soft_timer_isr_en
                0x000000000001369c        0x4 ..\..\libs\cpu\libplatform.a(startup.o)
                0x000000000001369c                soft_timer_isr_en
 .sbss.fot_update_success
                0x00000000000136a0        0x1 ..\..\libs\cpu\libplatform.a(fot_pack.o)
 *fill*         0x00000000000136a1        0x7 
 .sbss.lock_cb  0x00000000000136a8        0x8 ..\..\libs\cpu\libplatform.a(lock.o)
 .sbss.sys_trim
                0x00000000000136b0        0x8 ..\..\libs\cpu\libplatform.a(voltage_trim.o)
                0x00000000000136b0                sys_trim
 .sbss          0x00000000000136b8       0x11 ..\..\libs\ble\libbtstack.a(sm.o)
 *fill*         0x00000000000136c9        0x3 
 .sbss          0x00000000000136cc        0x4 ..\..\libs\ble\libbtstack.a(att_server.o)
 .sbss          0x00000000000136d0        0xc ..\..\libs\ble\libbtstack.a(att_dispatch.o)
 .sbss          0x00000000000136dc       0x10 ..\..\libs\ble\libbtstack.a(att_db.o)
 .sbss          0x00000000000136ec        0x2 ..\..\libs\ble\libbtstack.a(btstack_api.o)
                0x00000000000136ec                btstack_cb
 .sbss          0x00000000000136ee        0x1 ..\..\libs\ble\libbtstack.a(ble_api.o)
 *fill*         0x00000000000136ef        0x1 
 .sbss          0x00000000000136f0        0x2 ..\..\libs\ble\libbtstack.a(hct_proc.o)
 .sbss          0x00000000000136f2        0x1 ..\..\libs\ble\libbtstack.a(bb.o)
 *fill*         0x00000000000136f3        0x1 
 .sbss          0x00000000000136f4        0x2 ..\..\libs\ble\libbtstack.a(l2cap.o)
 *fill*         0x00000000000136f6        0x2 
 .sbss          0x00000000000136f8       0x10 ..\..\libs\ble\libbtstack.a(btstack_main.o)
 .sbss          0x0000000000013708        0x8 ..\..\libs\ble\libbtstack.a(bb_sche.o)
                0x0000000000013708                ss_params
 .sbss          0x0000000000013710        0x1 ..\..\libs\ble\libbtstack.a(mgr_proc.o)
 *fill*         0x0000000000013711        0x3 
 .sbss          0x0000000000013714        0x5 ..\..\libs\ble\libbtstack.a(ll_tbox_prod_test.o)
 *fill*         0x0000000000013719        0x3 
 .sbss          0x000000000001371c        0x2 ..\..\libs\ble\libbtstack.a(ll_proc.o)
 *(.buf*)
 *fill*         0x000000000001371e        0x2 
 .buf.func_cb   0x0000000000013720        0x2 Output\obj\project\ble_peripheral\app\func.o
                0x0000000000013720                func_cb
 *fill*         0x0000000000013722        0x2 
 .buf.bsp.sys_cb
                0x0000000000013724        0x8 Output\obj\project\ble_peripheral\bsp\bsp_sys.o
                0x0000000000013724                sys_cb
 *(.ble_cache*)
 .ble_cache.att
                0x000000000001372c       0x8c Output\obj\project\ble_peripheral\ble\ble_init.o
                0x000000000001372c                ble_tx_pool
 .ble_cache.att
                0x00000000000137b8       0x10 ..\..\libs\ble\libbtstack.a(txpkt.o)
                0x00000000000137b8                txpkt_cb
 .ble_cache.sm.addr
                0x00000000000137c8        0x6 ..\..\libs\ble\libbtstack.a(sm.o)
 *fill*         0x00000000000137ce        0x2 
 .ble_cache.sm.aes
                0x00000000000137d0        0x8 ..\..\libs\ble\libbtstack.a(sm.o)
 .ble_cache.sm.irk
                0x00000000000137d8       0x10 ..\..\libs\ble\libbtstack.a(sm.o)
 .ble_cache.sm.rand
                0x00000000000137e8        0x4 ..\..\libs\ble\libbtstack.a(sm.o)
 .ble_cache.sm.sta
                0x00000000000137ec        0x8 ..\..\libs\ble\libbtstack.a(sm.o)
 *(.ble_buf*)
 .ble_buf.var   0x00000000000137f4        0x2 Output\obj\project\ble_peripheral\ble\ble_init.o
                0x00000000000137f4                ble_cb
 *fill*         0x00000000000137f6        0x2 
 .ble_buf.att   0x00000000000137f8       0x28 ..\..\libs\ble\libbtstack.a(gatt_client.o)
 .ble_buf.att   0x0000000000013820       0x10 ..\..\libs\ble\libbtstack.a(att_server.o)
 *(.fot_data.*)
 *(.tbox.*)
 .tbox.voice_enc_buf
                0x0000000000013830      0x21c Output\obj\project\ble_peripheral\bsp\bsp_uart_transfer.o
 *(.notch_iir*)
 *(.prod_test*)
 *(.fcc.huart_buf)
 *(.hci.h3*)
                0x0000000000013b00                . = ALIGN (0x100)
 *fill*         0x0000000000013a4c       0xb4 
                0x0000000000013b00                __bss_end = .
                0x0000000000002f00                __bss_size = (__bss_end - __bss_start)

.comm           0x0000000000013b00      0xf00 load address 0x0000000010000200
                0x0000000000013b00                __comm_start = .
 *(.vector)
 .vector        0x0000000000013b00       0xc8 ..\..\libs\cpu\libplatform.a(reset.o)
                0x0000000000013ba0                _exception_isr
                0x0000000000013ba2                nop_isr
 *(.com_text*)
 .com_text.sleep_tick
                0x0000000000013bc8        0x2 Output\obj\project\ble_peripheral\app\func_lowpwr.o
                0x0000000000013bc8                lowpwr_tout_ticks
 .com_text.timer
                0x0000000000013bca       0x54 Output\obj\project\ble_peripheral\bsp\bsp_sys.o
                0x0000000000013bca                usr_tmr1ms_isr_callback
                0x0000000000013bcc                usr_tmr5ms_callback
 .com_text.isr  0x0000000000013c1e       0x6c Output\obj\project\ble_peripheral\bsp\bsp_uart_transfer.o
                0x0000000000013c1e                uart_isr
                0x0000000000013c72                uart_timeout_1ms_isr
 .com_text.ble.phy
                0x0000000000013c8a        0x4 Output\obj\project\ble_peripheral\strong_ble.o
                0x0000000000013c8a                ble_phy_2M_enable
 .com_text.printf
                0x0000000000013c8e        0x2 Output\obj\project\ble_peripheral\strong_symbol.o
                0x0000000000013c8e                uart_debug_putchar
 .com_text.spiflash
                0x0000000000013c90       0x1c Output\obj\project\ble_peripheral\strong_symbol.o
                0x0000000000013c90                os_spiflash_addr_check
 .com_text.spiflash
                0x0000000000013cac       0x90 ..\..\libs\cpu\libplatform.a(os_flash.o)
                0x0000000000013cb0                os_spiflash_addr_check_2
                0x0000000000013ce6                os_spiflash_program
                0x0000000000013d18                os_spiflash_erase
 .com_text.delay
                0x0000000000013d3c       0x54 ..\..\libs\cpu\libplatform.a(main.o)
                0x0000000000013d3c                delay_5ms
                0x0000000000013d56                delay_ms
                0x0000000000013d6e                delay_us
                0x0000000000013d86                delay
 .com_text.irq  0x0000000000013d90       0x70 ..\..\libs\cpu\libplatform.a(interrupt.o)
                0x0000000000013d90                tick0_isr
                0x0000000000013de6                tick_get
                0x0000000000013dee                tick_check_expire
 .com_text.trim.lvd_set
                0x0000000000013e00       0x3e ..\..\libs\cpu\libplatform.a(pmu.o)
                0x0000000000013e00                pmu_set_lvd
                0x0000000000013e2c                pmu_set_vbg
 .com_text.patch
                0x0000000000013e3e        0xa ..\..\libs\cpu\libplatform.a(reset.o)
                0x0000000000013e3e                spiflash_erase_patch
 .com_text.spiflash.erase
                0x0000000000013e48       0x34 ..\..\libs\cpu\libplatform.a(spiflash.o)
                0x0000000000013e48                spiflash_erase_patch_do
 .com_text.exception
                0x0000000000013e7c        0xa ..\..\libs\cpu\libplatform.a(debug.o)
                0x0000000000013e7c                exception_isr
 .com_text.exception.hook
                0x0000000000013e86        0x4 ..\..\libs\cpu\libplatform.a(debug.o)
                0x0000000000013e86                sys_error_hook
 .com_text.sys  0x0000000000013e8a        0x2 ..\..\libs\cpu\libplatform.a(s_sys.o)
                0x0000000000013e8a                dummy_func
 .com_text.stack.run_loop
                0x0000000000013e8c        0x4 ..\..\libs\cpu\libplatform.a(weak_symbol.o)
                0x0000000000013e8e                thread_nanos_task_execute
 .com_text.stack.api
                0x0000000000013e90       0x24 ..\..\libs\cpu\libplatform.a(bt.o)
                0x0000000000013e90                ble_send_msg_do
 .com_text.stack.thread
                0x0000000000013eb4       0x32 ..\..\libs\cpu\libplatform.a(bt.o)
                0x0000000000013eb4                thread_btstack_pend
                0x0000000000013ed6                thread_btstack_post
 .com_text.stack.run_loop
                0x0000000000013ee6       0x3a ..\..\libs\cpu\libplatform.a(bt.o)
                0x0000000000013ee6                thread_btstack_entry
 .com_text.stack.hci.conn
                0x0000000000013f20        0x8 ..\..\libs\ble\libbtstack.a(hci.o)
                0x0000000000013f20                hci_get_connections
 .com_text.stack.linked_list
                0x0000000000013f28       0x10 ..\..\libs\ble\libbtstack.a(hci.o)
                0x0000000000013f28                hci_connections_get_iterator
 .com_text.stack.hci
                0x0000000000013f38       0x3a ..\..\libs\ble\libbtstack.a(hci.o)
                0x0000000000013f38                hci_connection_for_handle
                0x0000000000013f5a                hci_att_connection_for_handle
                0x0000000000013f6a                hci_get_outgoing_packet_buffer
 .com_text.att.event_handler
                0x0000000000013f72       0x26 ..\..\libs\ble\libbtstack.a(att_server.o)
 .com_text.hci  0x0000000000013f98        0x4 ..\..\libs\ble\libbtstack.a(hci_transport_h3_controller.o)
                0x0000000000013f98                hci_is_sleep
 .com_text.stack.ticks
                0x0000000000013f9c        0xa ..\..\libs\ble\libbtstack.a(btstack_hal.o)
                0x0000000000013f9e                sys_tick_handler
 .com_text.isr  0x0000000000013fa6       0x24 ..\..\libs\ble\libbtstack.a(btstack_hal.o)
                0x0000000000013fa6                bt_timer_isr
 .com_text.stack.api
                0x0000000000013fca       0x62 ..\..\libs\ble\libbtstack.a(btstack_api.o)
                0x0000000000013fca                ble_get_status
                0x0000000000013fd6                btstack_message
 .com_text.txpkt.list.push_back
                0x000000000001402c        0xa ..\..\libs\ble\libbtstack.a(txpkt.o)
                0x000000000001402c                txpkt_list_push_back
 .com_text.bb.dbg.ble
                0x0000000000014036        0x4 ..\..\libs\ble\libbtstack.a(platform.o)
                0x0000000000014036                bb_ll_tx_cb
                0x0000000000014038                bb_ll_rx_cb
 .com_text.bb.utils.dummy
                0x000000000001403a        0x6 ..\..\libs\ble\libbtstack.a(platform.o)
                0x000000000001403a                dummy_void
                0x000000000001403c                dummy_false
 .com_text.bb.isr.rssi
                0x0000000000014040        0xa ..\..\libs\ble\libbtstack.a(rf.o)
                0x0000000000014040                rf_rssi_calc_dbm
 .com_text.bb.rf
                0x000000000001404a       0x26 ..\..\libs\ble\libbtstack.a(rf.o)
                0x000000000001404a                rf_hal_init
 .com_text.bb.buf
                0x0000000000014070       0x24 ..\..\libs\ble\libbtstack.a(hct_proc.o)
                0x0000000000014070                hct_block_is_reserved
 .com_text.ble.isr.con.end
                0x0000000000014094       0x9a ..\..\libs\ble\libbtstack.a(ble_con.o)
                0x0000000000014094                ble_con_rx_end
 .com_text.ble.isr.con.rx_desc
                0x000000000001412e        0x2 ..\..\libs\ble\libbtstack.a(ble_con.o)
                0x000000000001412e                ble_con_rx_desc
 .com_text.bb.buf
                0x0000000000014130       0xbc ..\..\libs\ble\libbtstack.a(ble_buf.o)
                0x0000000000014130                ble_buf_acl_tx_alloc
                0x000000000001417a                ble_buf_acl_tx_free_do
                0x000000000001418c                ble_buf_acl_tx_free
 .com_text.bb.patch
                0x00000000000141ec       0x24 ..\..\libs\ble\libbtstack.a(ble_buf.o)
                0x00000000000141ec                bb_patch1
                0x00000000000141ee                bb_patch3
 .com_text.bb.isr
                0x0000000000014210       0x7c ..\..\libs\ble\libbtstack.a(bb_int.o)
                0x0000000000014242                bb_isr
                0x0000000000014280                bb_hal_isr
 .com_text.bb.run_loop
                0x000000000001428c       0x30 ..\..\libs\ble\libbtstack.a(bb.o)
                0x000000000001428c                bb_run_loop
 .com_text.stack.run_loop
                0x00000000000142bc       0x74 ..\..\libs\ble\libbtstack.a(btstack_run_loop.o)
                0x00000000000142bc                btstack_cmp_abs_tick
                0x00000000000142c2                btstack_run_loop_execute_once
 .com_text.ret.stack.thread
                0x0000000000014330        0xa ..\..\libs\ble\libbtstack.a(btstack_run_loop.o)
                0x0000000000014330                btstack_run_loop_embedded_trigger
 .com_text.stack.ticks
                0x000000000001433a       0x1e ..\..\libs\ble\libbtstack.a(btstack_run_loop.o)
 .com_text.bb.nanos.trigger
                0x0000000000014358        0x2 ..\..\libs\ble\libbtstack.a(btstack_run_loop.o)
                0x0000000000014358                thread_nanos_task_trigger
 .com_text.stack.handler
                0x000000000001435a       0x1e ..\..\libs\ble\libbtstack.a(btstack_main.o)
 .com_text.md.nanos
                0x0000000000014378       0x14 ..\..\libs\ble\libbtstack.a(nanos.o)
                0x0000000000014378                nanos_event_set
 .com_text.nanos.malloc
                0x000000000001438c        0xc ..\..\libs\ble\libbtstack.a(nanos.o)
                0x000000000001438c                nanos_sys_malloc
 .com_text.nanos.free
                0x0000000000014398        0xa ..\..\libs\ble\libbtstack.a(nanos.o)
                0x0000000000014398                nanos_sys_free
 .com_text.bb.frag
                0x00000000000143a2       0x18 ..\..\libs\ble\libbtstack.a(bb_sche.o)
 .com_text.bb.prog
                0x00000000000143ba       0x30 ..\..\libs\ble\libbtstack.a(bb_sche.o)
 .com_text.ble.isr.con.end
                0x00000000000143ea       0x18 ..\..\libs\ble\libbtstack.a(patch.o)
                0x00000000000143ea                bb_patch2_do
 .com_text.bb.isr
                0x0000000000014402        0xe ..\..\libs\ble\libbtstack.a(bb_clk.o)
                0x0000000000014402                bb_lpcycles_2_hus_hook
 .com_text.ble.isr
                0x0000000000014410       0x92 ..\..\libs\ble\libbtstack.a(ble_hook.o)
                0x0000000000014410                ble_isr_hook
 .com_text.ble.isr.con
                0x00000000000144a2      0x136 ..\..\libs\ble\libbtstack.a(ll_tbox_freq_cal.o)
                0x00000000000144a2                ll_tbox_freq_cal_time_record
                0x0000000000014526                ll_tbox_freq_cal
 .com_text.bb.isr
                0x00000000000145d8       0x34 ..\..\libs\ble\libbtstack.a(ble.o)
                0x00000000000145d8                ble_isr
 .com_text.bb.isr.timer
                0x000000000001460c       0x50 ..\..\libs\ble\libbtstack.a(bb_alarm.o)
 .com_text.bb.patch
                0x000000000001465c       0x1a ..\..\libs\ble\libbtstack.a(patch_asm.o)
                0x000000000001465c                bb_patch2
 .com_text.bb.patch.trc
                0x0000000000014676       0x1e ..\..\libs\ble\libbtstack.a(patch_asm.o)
                0x0000000000014676                ll_cntl_tx_check_fix_cb
 *(.com_rodata*)
 *fill*         0x0000000000014694        0x0 
 .com_rodata.bb.tbl
                0x0000000000014694        0xc ..\..\libs\ble\libbtstack.a(hct_proc.o)
 .com_rodata.bb.tbl
                0x00000000000146a0       0x18 ..\..\libs\ble\libbtstack.a(ble_buf.o)
 .com_rodata.bb.tbl
                0x00000000000146b8       0x10 ..\..\libs\ble\libbtstack.a(bb_utils.o)
                0x00000000000146b8                bb_sca2ppm
 .com_rodata.bb.tbl.bits
                0x00000000000146c8       0x10 ..\..\libs\ble\libbtstack.a(bb_utils.o)
                0x00000000000146c8                one_bits
 .com_rodata.bb.tbl.i2m
                0x00000000000146d8        0x4 ..\..\libs\ble\libbtstack.a(bb_utils.o)
                0x00000000000146d8                bb_phy_value_to_mask
 .com_rodata.bb.tbl.phy.i2r
                0x00000000000146dc        0x4 ..\..\libs\ble\libbtstack.a(bb_utils.o)
                0x00000000000146dc                bb_phy_to_rate
 .com_rodata.bb.tbl.phy.m2i
                0x00000000000146e0        0x5 ..\..\libs\ble\libbtstack.a(bb_utils.o)
                0x00000000000146e0                bb_phy_mask_to_value
 *fill*         0x00000000000146e5        0x3 
 .com_rodata.bb.tbl.phy.r2i
                0x00000000000146e8        0x5 ..\..\libs\ble\libbtstack.a(bb_utils.o)
                0x00000000000146e8                bb_rate_to_phy
 *fill*         0x00000000000146ed        0x3 
 .com_rodata.bb.err
                0x00000000000146f0        0xd ..\..\libs\ble\libbtstack.a(bb_int.o)
                0x00000000000146f0                str_bb_err
 *fill*         0x00000000000146fd        0x3 
 .com_rodata.bb.tbl
                0x0000000000014700       0x16 ..\..\libs\ble\libbtstack.a(bb.o)
                0x0000000000014700                bb_priority
 *fill*         0x0000000000014716        0x2 
 .com_rodata.bb.tbl
                0x0000000000014718        0xc ..\..\libs\ble\libbtstack.a(mgr_proc.o)
                0x0000000000014718                mgr_msg_env
 .com_rodata.bb.tbl
                0x0000000000014724        0xc ..\..\libs\ble\libbtstack.a(ll_proc.o)
                0x0000000000014724                ll_msg_env
 .com_rodata.bb.err
                0x0000000000014730        0xf ..\..\libs\ble\libbtstack.a(ble.o)
                0x0000000000014730                str_ble_err
 *fill*         0x000000000001473f        0x1 
 .com_rodata.bb.tbl
                0x0000000000014740        0xc ..\..\libs\ble\libbtstack.a(vs_proc.o)
                0x0000000000014740                vs_msg_env
 *debug.o(.rodata*)
 *(.com_periph.*)
 .com_periph.uart.send
                0x000000000001474c        0x8 Output\obj\driver\driver_uart.o
                0x000000000001474c                uart_send_data
 .com_periph.uart.recv
                0x0000000000014754       0x14 Output\obj\driver\driver_uart.o
                0x0000000000014754                uart_receive_data
 .com_periph.uart.get_flag
                0x0000000000014768       0x18 Output\obj\driver\driver_uart.o
                0x0000000000014768                uart_get_flag
 .com_periph.uart.clear_flag
                0x0000000000014780       0x2a Output\obj\driver\driver_uart.o
                0x0000000000014780                uart_clear_flag
 .com_periph.uart.send
                0x00000000000147aa       0x32 Output\obj\project\ble_peripheral\bsp\bsp_uart_transfer.o
                0x00000000000147aa                uart_transfer_tx_buff
 *(.data*)
 .data          0x00000000000147dc       0x28 ..\..\libs\ble\libbtstack.a(rf_mate.o)
                0x00000000000147e8                rf_init_cb
 *(.sdata*)
 .sdata         0x0000000000014804        0x1 Output\obj\project\ble_peripheral\strong_symbol.o
                0x0000000000014804                cfg_spiflash_speed_up_en
 *fill*         0x0000000000014805        0x3 
 .sdata.cpu_gprs
                0x0000000000014808        0x4 ..\..\libs\cpu\libplatform.a(debug.o)
                0x0000000000014808                cpu_gprs
 .sdata         0x000000000001480c        0xc ..\..\libs\ble\libbtstack.a(btstack_hal.o)
 .sdata         0x0000000000014818        0x1 ..\..\libs\ble\libbtstack.a(rf_mate.o)
 *(.notch_iir_text*)
                0x0000000000014a00                . = ALIGN (0x200)
 *fill*         0x0000000000014819      0x1e7 
                0x0000000000014a00                __comm_end = .
                0x0000000000000f00                __comm_size = (__comm_end - __comm_start)

.pdn_comm       0x0000000000010c00      0x200 load address 0x0000000010001100
 *(.com_pwroff*)
 .com_pwroff.mode2
                0x0000000000010c00      0x188 Output\obj\driver\driver_lowpwr.o
                0x0000000000010c00                pwroff_mode2_final
                0x0000000000010c9a                lowpwr_pwroff_mode2_do
                0x0000000000010e00                . = ALIGN (0x200)
 *fill*         0x0000000000010d88       0x78 

.flash          0x0000000010001400    0x10600
                0x0000000010001400                __code_start_app_proc = .
 *(.text.app.proc.*)
 .text.app.proc.func
                0x0000000010001400       0x14 Output\obj\project\ble_peripheral\app\func.o
                0x0000000010001400                func_process
 .text.app.proc.msg
                0x0000000010001414        0x8 Output\obj\project\ble_peripheral\app\func_bt.o
                0x0000000010001414                func_bt_message
 .text.app.proc.bt
                0x000000001000141c        0xe Output\obj\project\ble_peripheral\app\func_bt.o
                0x000000001000141c                func_bt_sub_process
                0x000000001000141e                func_bt_process
 .text.app.proc.ble
                0x000000001000142a        0x2 Output\obj\project\ble_peripheral\ble\ble_proc.o
                0x000000001000142a                ble_app_proc
 .text.app.proc.ble
                0x000000001000142c       0x48 Output\obj\project\ble_peripheral\ble\ble_user_service.o
                0x000000001000142c                ble_user_service_proc
 .text.app.proc.test
                0x0000000010001474        0x2 Output\obj\project\ble_peripheral\prod_test\prod_test.o
                0x0000000010001474                prod_test_process
                0x0000000010001600                . = ALIGN (0x200)
 *fill*         0x0000000010001476      0x18a 
                0x0000000010001600                __code_end_app_proc = .
                0x0000000010001600                __code_start_stack_send = .
 *(.text.stack.send.*)
 .text.stack.send.txpkt
                0x0000000010001600      0x1de ..\..\libs\ble\libbtstack.a(txpkt.o)
                0x0000000010001600                txpkt_send
                0x00000000100016c2                txpkt_event_send
                0x00000000100016f6                txpkt_server_send_tick
                0x0000000010001704                txpkt_client_send_tick
 .text.stack.send.hci
                0x00000000100017de       0xe6 ..\..\libs\ble\libbtstack.a(hci.o)
                0x0000000010001880                hci_send_acl_packet_buffer
 .text.stack.send.ntf_do
                0x00000000100018c4       0x4e ..\..\libs\ble\libbtstack.a(gatt_server.o)
 .text.stack.send.ntf
                0x0000000010001912       0x16 ..\..\libs\ble\libbtstack.a(gatt_server.o)
                0x0000000010001912                ble_send_notify_packet
                0x0000000010001924                ble_notify_for_handle
 .text.stack.send.server
                0x0000000010001928       0x8c ..\..\libs\ble\libbtstack.a(gatt_server.o)
                0x0000000010001928                att_event_server_txpkt_send
                0x000000001000199c                btstack_ble_server_send_req
 .text.stack.send.server
                0x00000000100019b4       0x1e ..\..\libs\ble\libbtstack.a(att_server.o)
                0x00000000100019b4                att_server_request_can_send_now_event
 .text.stack.send.ntf
                0x00000000100019d2       0x52 ..\..\libs\ble\libbtstack.a(att_server.o)
                0x00000000100019d2                att_server_notify
 .text.stack.send.dispatch_server
                0x0000000010001a24        0xc ..\..\libs\ble\libbtstack.a(att_dispatch.o)
                0x0000000010001a24                att_dispatch_server_request_can_send_now_event
 .text.stack.send.ntf
                0x0000000010001a30       0x3e ..\..\libs\ble\libbtstack.a(att_db.o)
                0x0000000010001a30                att_prepare_handle_value_notification
 .text.stack.send.kick
                0x0000000010001a6e       0x1a ..\..\libs\ble\libbtstack.a(ble_api.o)
                0x0000000010001a6e                ble_send_kick
 .text.stack.send.l2cap
                0x0000000010001a88       0x6e ..\..\libs\ble\libbtstack.a(l2cap.o)
                0x0000000010001a88                l2cap_request_can_send_fix_channel_now_event
                0x0000000010001aae                l2cap_send_prepared_connectionless
 .text.stack.send.acl
                0x0000000010001af6       0xe0 ..\..\libs\ble\libbtstack.a(ll_proc.o)
                0x0000000010001af6                hci_acl_data_func
                0x0000000010001c00                . = ALIGN (0x200)
 *fill*         0x0000000010001bd6       0x2a 
                0x0000000010001c00                __code_end_stack_send = .
                0x0000000010001c00                __code_start_sleep_send = .
 *(.com_sleep*)
 .com_sleep.rf.txpwr
                0x0000000010001c00        0x8 Output\obj\project\ble_peripheral\strong_ble.o
                0x0000000010001c00                bt_rf_get_tx_pwr
 .com_sleep.bb.putc
                0x0000000010001c08        0x2 ..\..\libs\ble\libbtstack.a(bb_dbg.o)
                0x0000000010001c08                bb_dbg_init
 .com_sleep.rfphy
                0x0000000010001c0a        0x4 ..\..\libs\ble\libbtstack.a(extern.o)
                0x0000000010001c0a                ble_rf_fix_poor_tx_mod_enable
 .com_sleep.rfphy
                0x0000000010001c0e      0x102 ..\..\libs\ble\libbtstack.a(rf_mate.o)
                0x0000000010001c8a                rfphy_txrx_init
 .com_sleep.rfphy.init
                0x0000000010001d10       0x6a ..\..\libs\ble\libbtstack.a(rf_mate.o)
                0x0000000010001d10                rfphy_init
 .com_sleep.rf  0x0000000010001d7a       0x36 ..\..\libs\ble\libbtstack.a(rf_mate.o)
                0x0000000010001d7a                modem_init
                0x0000000010001e00                . = ALIGN (0x200)
 *fill*         0x0000000010001db0       0x50 
                0x0000000010001e00                __code_end_sleep_send = .
 *(.text*)
 .text.clk_gate0_cmd
                0x0000000010001e00       0x16 Output\obj\driver\driver_clk.o
                0x0000000010001e00                clk_gate0_cmd
 .text.clk_uart_clk_set
                0x0000000010001e16       0x16 Output\obj\driver\driver_clk.o
                0x0000000010001e16                clk_uart_clk_set
 .text.clk_uart_clk_get
                0x0000000010001e2c       0x32 Output\obj\driver\driver_clk.o
                0x0000000010001e2c                clk_uart_clk_get
 .text.gpio_init
                0x0000000010001e5e      0x13a Output\obj\driver\driver_gpio.o
                0x0000000010001e5e                gpio_init
 .text.gpio_func_mapping_config
                0x0000000010001f98       0xac Output\obj\driver\driver_gpio.o
                0x0000000010001f98                gpio_func_mapping_config
 .text.wko_io_config
                0x0000000010002044       0x3e Output\obj\driver\driver_gpio.o
                0x0000000010002044                wko_io_config
 .text.wk0_edge_capture_config
                0x0000000010002082       0x60 Output\obj\driver\driver_gpio.o
                0x0000000010002082                wk0_edge_capture_config
 .text.gpio_edge_capture_config
                0x00000000100020e2       0xd4 Output\obj\driver\driver_gpio.o
                0x00000000100020e2                gpio_edge_capture_config
 .text.lowpwr_get_wakeup_source
                0x00000000100021b6       0x88 Output\obj\driver\driver_lowpwr.o
                0x00000000100021b6                lowpwr_get_wakeup_source
 .text.lowpwr_wakeup_disable
                0x000000001000223e       0x38 Output\obj\driver\driver_lowpwr.o
                0x000000001000223e                lowpwr_wakeup_disable
 .text.lowpwr_wk0_wakeup_config
                0x0000000010002276       0x72 Output\obj\driver\driver_lowpwr.o
                0x0000000010002276                lowpwr_wk0_wakeup_config
 .text.lowpwr_gpio_wakeup_config
                0x00000000100022e8       0x3c Output\obj\driver\driver_lowpwr.o
                0x00000000100022e8                lowpwr_gpio_wakeup_config
 .text.lowpwr_wakeup_config
                0x0000000010002324       0xd8 Output\obj\driver\driver_lowpwr.o
                0x0000000010002324                lowpwr_wakeup_config
 .text.saradc_deinit
                0x00000000100023fc       0xca Output\obj\driver\driver_saradc.o
                0x00000000100023fc                saradc_deinit
 .text.uart_init
                0x00000000100024c6       0x46 Output\obj\driver\driver_uart.o
                0x00000000100024c6                uart_init
 .text.uart_cmd
                0x000000001000250c       0x10 Output\obj\driver\driver_uart.o
                0x000000001000250c                uart_cmd
 .text.uart_pic_config
                0x000000001000251c       0x50 Output\obj\driver\driver_uart.o
                0x000000001000251c                uart_pic_config
 .text.func.msg
                0x000000001000256c        0x2 Output\obj\project\ble_peripheral\app\func.o
                0x000000001000256c                func_message
 .text.func     0x000000001000256e       0x40 Output\obj\project\ble_peripheral\app\func.o
                0x000000001000256e                func_enter
                0x0000000010002570                func_exit
                0x000000001000257a                func_run
 .text.func.msg
                0x00000000100025ae        0xc Output\obj\project\ble_peripheral\app\func_bt.o
                0x00000000100025ae                func_bt_message_do
 .text.func.bt  0x00000000100025ba       0x52 Output\obj\project\ble_peripheral\app\func_bt.o
                0x00000000100025ba                func_bt_init
                0x00000000100025bc                func_bt_enter
                0x00000000100025ce                func_bt_exit
                0x00000000100025e6                func_bt
 .text.func.idle.msg
                0x000000001000260c        0xc Output\obj\project\ble_peripheral\app\func_idle.o
                0x000000001000260c                func_idle_message
 .text.func.idle
                0x0000000010002618       0x2c Output\obj\project\ble_peripheral\app\func_idle.o
                0x0000000010002618                func_idle_process
                0x000000001000261c                func_idle
 .text.lowpwr_pwroff_wakeup_config
                0x0000000010002644       0x1a Output\obj\project\ble_peripheral\app\func_lowpwr.o
                0x0000000010002644                lowpwr_pwroff_wakeup_config
 .text.lowpwr.pwroff
                0x000000001000265e       0x30 Output\obj\project\ble_peripheral\app\func_lowpwr.o
                0x000000001000265e                func_pwroff
 .text.ble_get_scan_data
                0x000000001000268e       0x4c Output\obj\project\ble_peripheral\ble\ble_adv.o
                0x000000001000268e                ble_get_scan_data
 .text.ble_get_adv_data
                0x00000000100026da       0x90 Output\obj\project\ble_peripheral\ble\ble_adv.o
                0x00000000100026da                ble_get_adv_data
 .text.ble_adv_param_init
                0x000000001000276a       0x52 Output\obj\project\ble_peripheral\ble\ble_adv.o
                0x000000001000276a                ble_adv_param_init
 .text.ble_set_work_mode
                0x00000000100027bc        0x8 Output\obj\project\ble_peripheral\ble\ble_init.o
                0x00000000100027bc                ble_set_work_mode
 .text.ble_txpkt_init
                0x00000000100027c4        0xe Output\obj\project\ble_peripheral\ble\ble_init.o
                0x00000000100027c4                ble_txpkt_init
 .text.ble_periph_init
                0x00000000100027d2       0x1a Output\obj\project\ble_peripheral\ble\ble_init.o
                0x00000000100027d2                ble_periph_init
 .text.bsp_ble_init
                0x00000000100027ec       0x22 Output\obj\project\ble_peripheral\ble\ble_init.o
                0x00000000100027ec                bsp_ble_init
 .text.ble_get_profile_data
                0x000000001000280e        0xa Output\obj\project\ble_peripheral\ble\ble_profile.o
                0x000000001000280e                ble_get_profile_data
 .text.ble_service_init
                0x0000000010002818        0x2 Output\obj\project\ble_peripheral\ble\ble_service.o
                0x0000000010002818                ble_service_init
 .text.service_write_callback
                0x000000001000281a       0x30 Output\obj\project\ble_peripheral\ble\ble_user_service.o
 .text.ble_event_callback
                0x000000001000284a       0x38 Output\obj\project\ble_peripheral\ble\ble_user_service.o
 .text.service_read_callback
                0x0000000010002882       0x48 Output\obj\project\ble_peripheral\ble\ble_user_service.o
 .text.service_notify_event
                0x00000000100028ca       0x42 Output\obj\project\ble_peripheral\ble\ble_user_service.o
                0x00000000100028ca                service_notify_event
 .text.ble_user_service_init
                0x000000001000290c       0x46 Output\obj\project\ble_peripheral\ble\ble_user_service.o
                0x000000001000290c                ble_user_service_init
 .text.bsp.param
                0x0000000010002952       0x18 Output\obj\project\ble_peripheral\bsp\bsp_param.o
                0x0000000010002952                bsp_param_init
                0x000000001000295e                bsp_param_write
                0x0000000010002962                bsp_param_read
                0x0000000010002966                bsp_param_sync
 .text.sys_ram_info_dump
                0x000000001000296a        0x2 Output\obj\project\ble_peripheral\bsp\bsp_sys.o
                0x000000001000296a                sys_ram_info_dump
 .text.bsp.sys.init
                0x000000001000296c       0x86 Output\obj\project\ble_peripheral\bsp\bsp_sys.o
                0x000000001000296c                bsp_sys_init
 .text.ble_notify_buff_write_byte
                0x00000000100029f2       0x22 Output\obj\project\ble_peripheral\bsp\bsp_uart_transfer.o
 .text.user_uart_putchar
                0x0000000010002a14       0x2e Output\obj\project\ble_peripheral\bsp\bsp_uart_transfer.o
                0x0000000010002a14                user_uart_putchar
 .text.uart_cmd_buff_write_byte
                0x0000000010002a42       0x22 Output\obj\project\ble_peripheral\bsp\bsp_uart_transfer.o
                0x0000000010002a42                uart_cmd_buff_write_byte
 .text.uart_cmd_buff_read_last_byte
                0x0000000010002a64       0x1c Output\obj\project\ble_peripheral\bsp\bsp_uart_transfer.o
                0x0000000010002a64                uart_cmd_buff_read_last_byte
 .text.uart_cmd_buff_error
                0x0000000010002a80       0x34 Output\obj\project\ble_peripheral\bsp\bsp_uart_transfer.o
                0x0000000010002a80                uart_cmd_buff_error
 .text.uart_cmd_success_feedback
                0x0000000010002ab4       0x4e Output\obj\project\ble_peripheral\bsp\bsp_uart_transfer.o
                0x0000000010002ab4                uart_cmd_success_feedback
 .text.uart_transfer_init
                0x0000000010002b02       0xda Output\obj\project\ble_peripheral\bsp\bsp_uart_transfer.o
                0x0000000010002b02                uart_transfer_init
 .text.uart_transfer_rx_event
                0x0000000010002bdc      0x170 Output\obj\project\ble_peripheral\bsp\bsp_uart_transfer.o
                0x0000000010002bdc                uart_transfer_rx_event
 .text.startup.main
                0x0000000010002d4c       0x32 Output\obj\project\ble_peripheral\main.o
                0x0000000010002d4c                main
 .text.prod_test_init
                0x0000000010002d7e        0x2 Output\obj\project\ble_peripheral\prod_test\prod_test.o
                0x0000000010002d7e                prod_test_init
 .text.hci_fcc_init
                0x0000000010002d80        0x2 Output\obj\project\ble_peripheral\strong_ble.o
                0x0000000010002d80                hci_fcc_init
 .text.bt_uart_isr
                0x0000000010002d82        0x4 Output\obj\project\ble_peripheral\strong_ble.o
                0x0000000010002d82                bt_uart_isr
 .text.ble_sm_server_event_do
                0x0000000010002d86        0x2 Output\obj\project\ble_peripheral\strong_ble.o
                0x0000000010002d86                ble_sm_server_event_do
 .text.sm_send_security_request
                0x0000000010002d88        0x2 Output\obj\project\ble_peripheral\strong_ble.o
                0x0000000010002d88                sm_send_security_request
 .text.sm_request_pairing
                0x0000000010002d8a        0x2 Output\obj\project\ble_peripheral\strong_ble.o
                0x0000000010002d8a                sm_request_pairing
 .text.sm_passkey_input
                0x0000000010002d8c        0x2 Output\obj\project\ble_peripheral\strong_ble.o
                0x0000000010002d8c                sm_passkey_input
 .text.sm_passkey_input_get
                0x0000000010002d8e        0x4 Output\obj\project\ble_peripheral\strong_ble.o
                0x0000000010002d8e                sm_passkey_input_get
 .text.ble_get_local_bd_addr
                0x0000000010002d92       0x14 Output\obj\project\ble_peripheral\strong_ble.o
                0x0000000010002d92                ble_get_local_bd_addr
 .text.bt_rf_get_param
                0x0000000010002da6       0x16 Output\obj\project\ble_peripheral\strong_ble.o
                0x0000000010002da6                bt_rf_get_param
 .text.ble_get_link_info
                0x0000000010002dbc        0x6 Output\obj\project\ble_peripheral\strong_ble.o
                0x0000000010002dbc                ble_get_link_info
 .text.ble_put_link_info
                0x0000000010002dc2       0x10 Output\obj\project\ble_peripheral\strong_ble.o
                0x0000000010002dc2                ble_put_link_info
 .text.ble_mtu_exchange_enabled
                0x0000000010002dd2        0x4 Output\obj\project\ble_peripheral\strong_ble.o
                0x0000000010002dd2                ble_mtu_exchange_enabled
 .text.ble_disconnected_restart_adv
                0x0000000010002dd6        0x4 Output\obj\project\ble_peripheral\strong_ble.o
                0x0000000010002dd6                ble_disconnected_restart_adv
 .text.ble_rx_exit_sleep
                0x0000000010002dda        0x4 Output\obj\project\ble_peripheral\strong_ble.o
                0x0000000010002dda                ble_rx_exit_sleep
 .text.ble_feature_exchange_enabled
                0x0000000010002dde        0x4 Output\obj\project\ble_peripheral\strong_ble.o
                0x0000000010002dde                ble_feature_exchange_enabled
 .text.ble_length_request_enabled
                0x0000000010002de2        0x4 Output\obj\project\ble_peripheral\strong_ble.o
                0x0000000010002de2                ble_length_request_enabled
 .text.ble_phy_update_enable
                0x0000000010002de6        0x4 Output\obj\project\ble_peripheral\strong_ble.o
                0x0000000010002de6                ble_phy_update_enable
 .text.mem_heap_size_get
                0x0000000010002dea        0x8 Output\obj\project\ble_peripheral\strong_symbol.o
                0x0000000010002dea                mem_heap_size_get
 .text.thread_cfg_get
                0x0000000010002df2        0xa Output\obj\project\ble_peripheral\strong_symbol.o
                0x0000000010002df2                thread_cfg_get
 .text.thread_create_callback
                0x0000000010002dfc        0x4 Output\obj\project\ble_peripheral\strong_symbol.o
                0x0000000010002dfc                thread_create_callback
 .text.xosc_get_xcfg
                0x0000000010002e00       0x20 Output\obj\project\ble_peripheral\strong_symbol.o
                0x0000000010002e00                xosc_get_xcfg
 .text.param_xosc_read
                0x0000000010002e20        0x8 Output\obj\project\ble_peripheral\strong_symbol.o
                0x0000000010002e20                param_xosc_read
 .text.param_xosc_write
                0x0000000010002e28       0x14 Output\obj\project\ble_peripheral\strong_symbol.o
                0x0000000010002e28                param_xosc_write
 .text.sys_clk_change_callback
                0x0000000010002e3c        0x2 Output\obj\project\ble_peripheral\strong_symbol.o
                0x0000000010002e3c                sys_clk_change_callback
 .text.uart_debug_init_callback
                0x0000000010002e3e        0xc Output\obj\project\ble_peripheral\strong_symbol.o
                0x0000000010002e3e                uart_debug_init_callback
 .text.cm_loadpage
                0x0000000010002e4a       0xb0 ..\..\libs\cpu\libplatform.a(cm.o)
 .text.cm_next_freepage
                0x0000000010002efa       0x54 ..\..\libs\cpu\libplatform.a(cm.o)
 .text.cm_loadparam
                0x0000000010002f4e        0x4 ..\..\libs\cpu\libplatform.a(cm.o)
                0x0000000010002f4e                cm_loadparam
 .text.cm_factory
                0x0000000010002f52        0xa ..\..\libs\cpu\libplatform.a(cm.o)
                0x0000000010002f52                cm_factory
 .text.cm_addr_check
                0x0000000010002f5c        0x4 ..\..\libs\cpu\libplatform.a(cm.o)
                0x0000000010002f5c                cm_addr_check
 .text.cm_writepage
                0x0000000010002f60       0x28 ..\..\libs\cpu\libplatform.a(cm.o)
 .text.cm_movepage
                0x0000000010002f88       0x50 ..\..\libs\cpu\libplatform.a(cm.o)
 .text.cm_erase
                0x0000000010002fd8       0x1c ..\..\libs\cpu\libplatform.a(cm.o)
 .text.cm_release
                0x0000000010002ff4       0xfa ..\..\libs\cpu\libplatform.a(cm.o)
 .text.cm_savepage
                0x00000000100030ee       0xd8 ..\..\libs\cpu\libplatform.a(cm.o)
 .text.cm_check_loadpage
                0x00000000100031c6       0xae ..\..\libs\cpu\libplatform.a(cm.o)
 .text.cm_sync  0x0000000010003274       0x3e ..\..\libs\cpu\libplatform.a(cm.o)
                0x0000000010003274                cm_sync
 .text.cm_read  0x00000000100032b2       0x42 ..\..\libs\cpu\libplatform.a(cm.o)
                0x00000000100032b2                cm_read
 .text.cm_write
                0x00000000100032f4       0x5e ..\..\libs\cpu\libplatform.a(cm.o)
                0x00000000100032f4                cm_write
 .text.cm_init  0x0000000010003352      0x1e4 ..\..\libs\cpu\libplatform.a(cm.o)
                0x0000000010003352                cm_init
 .text.xcfg_init
                0x0000000010003536       0x4c ..\..\libs\cpu\libplatform.a(xcfg.o)
                0x0000000010003536                xcfg_init
 .text.platform_main
                0x0000000010003582      0x154 ..\..\libs\cpu\libplatform.a(main.o)
                0x0000000010003582                platform_main
 .text.main_startup
                0x00000000100036d6        0xe ..\..\libs\cpu\libplatform.a(main.o)
                0x00000000100036d6                main_startup
 .text.register_isr
                0x00000000100036e4       0x38 ..\..\libs\cpu\libplatform.a(interrupt.o)
                0x00000000100036e4                register_isr
 .text.sys_irq_init
                0x000000001000371c       0x88 ..\..\libs\cpu\libplatform.a(interrupt.o)
                0x000000001000371c                sys_irq_init
 .text.soft_irq_init
                0x00000000100037a4       0x44 ..\..\libs\cpu\libplatform.a(interrupt.o)
                0x00000000100037a4                soft_irq_init
 .text.bthw_irq_init
                0x00000000100037e8        0xe ..\..\libs\cpu\libplatform.a(interrupt.o)
                0x00000000100037e8                bthw_irq_init
 .text.sys_timer_init
                0x00000000100037f6       0x5e ..\..\libs\cpu\libplatform.a(interrupt.o)
                0x00000000100037f6                sys_timer_init
 .text.thread_btstack_create
                0x0000000010003854       0x82 ..\..\libs\cpu\libplatform.a(startup.o)
                0x0000000010003854                thread_btstack_create
 .text.thread_main_entry
                0x00000000100038d6       0x2e ..\..\libs\cpu\libplatform.a(startup.o)
 .text.startup.init
                0x0000000010003904      0x100 ..\..\libs\cpu\libplatform.a(startup.o)
                0x0000000010003904                platform_init
                0x000000001000390c                sys_startup
 .text.bt_set_timer_enable
                0x0000000010003a04       0x18 ..\..\libs\cpu\libplatform.a(startup.o)
                0x0000000010003a04                bt_set_timer_enable
 .text.sys_set_tmr_enable
                0x0000000010003a1c       0x22 ..\..\libs\cpu\libplatform.a(startup.o)
                0x0000000010003a1c                sys_set_tmr_enable
 .text.sys_hook_init
                0x0000000010003a3e        0x2 ..\..\libs\cpu\libplatform.a(sys_hook.o)
                0x0000000010003a3e                sys_hook_init
 .text.pll0_vco_band_trimming
                0x0000000010003a40      0x176 ..\..\libs\cpu\libplatform.a(pll.o)
                0x0000000010003a40                pll0_vco_band_trimming
 .text.pll0_init
                0x0000000010003bb6       0x62 ..\..\libs\cpu\libplatform.a(pll.o)
                0x0000000010003bb6                pll0_init
 .text.pll0_disable
                0x0000000010003c18       0x16 ..\..\libs\cpu\libplatform.a(pll.o)
                0x0000000010003c18                pll0_disable
 .text.pmu_set_buck_mode
                0x0000000010003c2e       0x48 ..\..\libs\cpu\libplatform.a(pmu.o)
                0x0000000010003c2e                pmu_set_buck_mode
 .text.pmu_voltage_configure
                0x0000000010003c76       0x48 ..\..\libs\cpu\libplatform.a(pmu.o)
                0x0000000010003c76                pmu_voltage_configure
 .text.pmu_init
                0x0000000010003cbe      0x2e4 ..\..\libs\cpu\libplatform.a(pmu.o)
                0x0000000010003cbe                pmu_init
 .text.debug_set
                0x0000000010003fa2       0x20 ..\..\libs\cpu\libplatform.a(debug.o)
                0x0000000010003fa2                debug_set
 .text.ota_pack_is_update_success
                0x0000000010003fc2       0x10 ..\..\libs\cpu\libplatform.a(fot_pack.o)
                0x0000000010003fc2                ota_pack_is_update_success
 .text.lock_init
                0x0000000010003fd2       0x10 ..\..\libs\cpu\libplatform.a(lock.o)
                0x0000000010003fd2                lock_init
 .text.patch_init
                0x0000000010003fe2       0x5a ..\..\libs\cpu\libplatform.a(patch.o)
                0x0000000010003fe2                patch_init
 .text.udivmoddi4
                0x000000001000403c       0x96 ..\..\libs\cpu\libplatform.a(sys.o)
 .text.sys_rst_init
                0x00000000100040d2       0x94 ..\..\libs\cpu\libplatform.a(sys.o)
                0x00000000100040d2                sys_rst_init
 .text.sys_rst_dump
                0x0000000010004166       0x74 ..\..\libs\cpu\libplatform.a(sys.o)
                0x0000000010004166                sys_rst_dump
 .text.rc2m_clk_nhz_cal
                0x00000000100041da       0xda ..\..\libs\cpu\libplatform.a(sys.o)
                0x00000000100041da                rc2m_clk_nhz_cal
 .text.sys_get_rand_key_init
                0x00000000100042b4        0xa ..\..\libs\cpu\libplatform.a(sys.o)
                0x00000000100042b4                sys_get_rand_key_init
 .text.xosc_init
                0x00000000100042be       0x92 ..\..\libs\cpu\libplatform.a(sys.o)
                0x00000000100042be                xosc_init
 .text.bsp.param
                0x0000000010004350       0x26 ..\..\libs\cpu\libplatform.a(sys.o)
                0x0000000010004350                bt_save_xosc_cap
 .text.bt_get_xosc_cap
                0x0000000010004376        0xc ..\..\libs\cpu\libplatform.a(sys.o)
                0x0000000010004376                bt_get_xosc_cap
 .text.bt_set_xosc_cap
                0x0000000010004382       0x18 ..\..\libs\cpu\libplatform.a(sys.o)
                0x0000000010004382                bt_set_xosc_cap
 .text.bt_adj_xosc_cap
                0x000000001000439a       0x72 ..\..\libs\cpu\libplatform.a(sys.o)
                0x000000001000439a                bt_adj_xosc_cap
 .text.__udivdi3
                0x000000001000440c        0x6 ..\..\libs\cpu\libplatform.a(sys.o)
                0x000000001000440c                __udivdi3
 .text.sys_clk_cacl_curr
                0x0000000010004412       0x18 ..\..\libs\cpu\libplatform.a(sys_clk.o)
 *fill*         0x000000001000442a      0x1d6 
 .text.set_sys_clk_do
                0x0000000010004600      0x1f2 ..\..\libs\cpu\libplatform.a(sys_clk.o)
                0x0000000010004600                set_sys_clk_do
 .text.sys_clk  0x00000000100047f2      0x1ca ..\..\libs\cpu\libplatform.a(sys_clk.o)
                0x00000000100047f2                sys_clk_get_cur
                0x00000000100047fa                sys_clk_set_do
 .text.sys_clk_set
                0x00000000100049bc       0x60 ..\..\libs\cpu\libplatform.a(sys_clk.o)
                0x00000000100049bc                sys_clk_set
 *fill*         0x0000000010004a1c        0x0 
 .text.sys_clk.table
                0x0000000010004a1c       0x16 ..\..\libs\cpu\libplatform.a(sys_clk.o)
                0x0000000010004a1c                sysclk_info_tbl
 .text.voltage.trim
                0x0000000010004a32       0xaa ..\..\libs\cpu\libplatform.a(voltage_trim.o)
                0x0000000010004a32                voltage_trim_value_init
 .text.xosc_24m_div_get
                0x0000000010004adc        0x4 ..\..\libs\cpu\libplatform.a(weak_symbol.o)
                0x0000000010004adc                xosc_24m_div_get
 .text.freq_det_init
                0x0000000010004ae0       0x3a ..\..\libs\cpu\libplatform.a(freq_det.o)
                0x0000000010004ae0                freq_det_init
 .text          0x0000000010004b1a       0x4e ..\..\libs\ble\libbtstack.a(txpkt.o)
                0x0000000010004b1a                txpkt_list_is_empty
                0x0000000010004b26                txpkt_init
                0x0000000010004b56                txpkt_get_available_len
 .text.txpkt.flush
                0x0000000010004b68       0x4a ..\..\libs\ble\libbtstack.a(txpkt.o)
                0x0000000010004b68                txpkt_free_for_handle
 .text          0x0000000010004bb2      0x2b4 ..\..\libs\ble\libbtstack.a(hci.o)
                0x0000000010004bb2                hci_get_state
                0x0000000010004bba                hci_adv_param_get
                0x0000000010004bc2                ble_get_scan_sta
                0x0000000010004bc6                hci_shutdown_connection
                0x0000000010004bec                gap_le_get_own_address
                0x0000000010004c22                hci_le_set_own_address_type
                0x0000000010004c56                hci_le_random_address_set
                0x0000000010004c7a                gap_ctrl_connection_parameter_latency
                0x0000000010004ca2                gap_set_connection_parameters
                0x0000000010004cba                gap_get_connection_parameters
                0x0000000010004ce2                gap_get_connection_parameters_for_handle
                0x0000000010004d18                gap_update_connection_parameters_do
                0x0000000010004d50                gap_update_connection_parameters
                0x0000000010004d84                gap_advertisements_set_data
                0x0000000010004d98                gap_scan_response_set_data
                0x0000000010004dac                gap_advertisements_enable
                0x0000000010004dcc                gap_ext_advertisements_set_data
                0x0000000010004dce                gap_ext_scan_response_set_data
                0x0000000010004dd0                gap_ext_advertisements_enable
                0x0000000010004dd2                gap_ext_advertisements_set_params
                0x0000000010004dd4                ble_per_advertisements_set_data
                0x0000000010004dd6                ble_per_advertisements_enable
                0x0000000010004dd8                ble_per_advertisements_add_device_list
                0x0000000010004dda                ble_per_advertisements_creat_sync
                0x0000000010004ddc                ble_per_advertisements_creat_sync_cancel
                0x0000000010004dde                ble_per_advertisements_terminate_sync
                0x0000000010004de0                ble_vs_tbox_prod_test_start
                0x0000000010004df6                gap_disconnect
                0x0000000010004e48                hci_rx_flush
                0x0000000010004e4a                hci_packet_send_finish
 .text.stack.hci_init
                0x0000000010004e66       0x88 ..\..\libs\ble\libbtstack.a(hci.o)
                0x0000000010004e86                hci_power_control
 .text.stack.handler.acl
                0x0000000010004eee       0x14 ..\..\libs\ble\libbtstack.a(hci.o)
 .text.stack.setup
                0x0000000010004f02       0xac ..\..\libs\ble\libbtstack.a(hci.o)
                0x0000000010004f32                hci_add_event_handler
                0x0000000010004f44                hci_register_acl_packet_handler
                0x0000000010004f4c                hci_init
 .text.stack.hci
                0x0000000010004fae      0x232 ..\..\libs\ble\libbtstack.a(hci.o)
                0x0000000010004ffe                hci_number_free_acl_slots_for_handle
                0x0000000010005016                hci_can_send_command_packet_now
                0x0000000010005054                hci_can_send_acl_le_packet_now
                0x0000000010005092                hci_can_send_prepared_acl_packet_now
                0x00000000100050a0                hci_can_send_acl_packet_now
                0x00000000100050ae                hci_is_packet_buffer_reserved
                0x00000000100050b6                hci_reserve_packet_buffer
                0x00000000100050ee                hci_release_packet_buffer
 .text.stack.hci.conn
                0x00000000100051e0       0xcc ..\..\libs\ble\libbtstack.a(hci.o)
                0x00000000100051e0                get_free_hci_connection
                0x00000000100051fc                create_connection_for_bd_addr_and_type
                0x0000000010005274                hci_connection_for_bd_addr_and_type
 .text.ble.hci  0x00000000100052ac      0x18c ..\..\libs\ble\libbtstack.a(hci.o)
                0x00000000100052ac                ble_event_cmd_complete
                0x0000000010005330                ble_event_meta
 .text.stack.hci_send
                0x0000000010005438       0x96 ..\..\libs\ble\libbtstack.a(hci.o)
                0x0000000010005438                hci_send_cmd_packet
                0x000000001000548c                hci_send_cmd
 .text.stack.hci.run
                0x00000000100054ce      0x1b0 ..\..\libs\ble\libbtstack.a(hci.o)
 .text.stack.hci_rx
                0x000000001000567e       0xdc ..\..\libs\ble\libbtstack.a(hci.o)
 .text.stack.hci_emit
                0x000000001000575a       0x2c ..\..\libs\ble\libbtstack.a(hci.o)
                0x000000001000575a                hci_emit_state
 .text.stack.hci.le.adv
                0x0000000010005786       0x46 ..\..\libs\ble\libbtstack.a(hci.o)
                0x0000000010005786                hci_le_advertisements_set_params
 .text          0x00000000100057cc       0x42 ..\..\libs\ble\libbtstack.a(btstack_util.o)
                0x00000000100057cc                log_info_hexdump
                0x00000000100057ce                log_info_key
                0x00000000100057d0                uuid_add_bluetooth_prefix
                0x00000000100057f2                uuid_has_bluetooth_prefix
 .text.stack.util
                0x000000001000580e      0x126 ..\..\libs\ble\libbtstack.a(btstack_util.o)
                0x000000001000580e                bd_addr_cmp
                0x0000000010005814                bd_addr_copy
                0x000000001000581a                big_endian_read_16
                0x000000001000582a                big_endian_read_32
                0x000000001000584a                big_endian_store_16
                0x000000001000585e                big_endian_store_32
                0x0000000010005892                reverse_bytes
                0x00000000100058ae                reverse_24
                0x00000000100058b2                reverse_48
                0x00000000100058b6                reverse_56
                0x00000000100058ba                reverse_64
                0x00000000100058be                reverse_128
                0x00000000100058c2                reverse_256
                0x00000000100058c8                reverse_bd_addr
                0x00000000100058ca                btstack_min
                0x00000000100058d0                btstack_max
                0x00000000100058d6                char_for_nibble
                0x00000000100058fc                nibble_for_char
 .text.stack.hci_dump
                0x0000000010005934       0x50 ..\..\libs\ble\libbtstack.a(btstack_util.o)
                0x0000000010005934                bd_addr_to_str
 .text.sm.aes   0x0000000010005984       0x3a ..\..\libs\ble\libbtstack.a(sm.o)
 .text.sm.get_handle
                0x00000000100059be       0x16 ..\..\libs\ble\libbtstack.a(sm.o)
 .text.sm.rau_run
                0x00000000100059d4       0x90 ..\..\libs\ble\libbtstack.a(sm.o)
 .text.gap.rau.update
                0x0000000010005a64       0x38 ..\..\libs\ble\libbtstack.a(sm.o)
 .text.sm.is_null
                0x0000000010005a9c       0x1c ..\..\libs\ble\libbtstack.a(sm.o)
                0x0000000010005a9c                sm_is_null
 .text.sm.hdl   0x0000000010005ab8       0x12 ..\..\libs\ble\libbtstack.a(sm.o)
                0x0000000010005ab8                sm_add_event_handler
 .text.sm.deinit
                0x0000000010005aca        0x8 ..\..\libs\ble\libbtstack.a(sm.o)
                0x0000000010005aca                sm_deinit
 .text.sm.auth.sta
                0x0000000010005ad2       0x24 ..\..\libs\ble\libbtstack.a(sm.o)
                0x0000000010005ad2                sm_authorization_state
 .text.sm.index
                0x0000000010005af6       0x14 ..\..\libs\ble\libbtstack.a(sm.o)
                0x0000000010005af6                sm_le_device_index
 .text.gap.rau.mode
                0x0000000010005b0a       0x66 ..\..\libs\ble\libbtstack.a(sm.o)
                0x0000000010005b0a                gap_random_address_set_mode
 .text.gap.rau_set
                0x0000000010005b70       0x28 ..\..\libs\ble\libbtstack.a(sm.o)
                0x0000000010005b70                gap_random_address_set
 .text.sm.addr  0x0000000010005b98        0xc ..\..\libs\ble\libbtstack.a(sm.o)
                0x0000000010005b98                gap_random_address_get
 .text.gap.adv  0x0000000010005ba4        0x4 ..\..\libs\ble\libbtstack.a(sm.o)
                0x0000000010005ba4                gap_advertisements_set_params
 .text          0x0000000010005ba8       0x36 ..\..\libs\ble\libbtstack.a(le_device_db_memory.o)
                0x0000000010005ba8                le_device_db_count
 .text.le.db.max
                0x0000000010005bde        0x4 ..\..\libs\ble\libbtstack.a(le_device_db_memory.o)
                0x0000000010005bde                ble_bonding_info_max_count
 .text.le.db.set
                0x0000000010005be2      0x114 ..\..\libs\ble\libbtstack.a(le_device_db_memory.o)
                0x0000000010005be2                le_device_db_info_save_for_index
                0x0000000010005c0a                le_device_db_info_set
 .text.le.db.read
                0x0000000010005cf6       0x2c ..\..\libs\ble\libbtstack.a(le_device_db_memory.o)
                0x0000000010005cf6                le_device_db_info_load_for_index
 .text.le.db.init
                0x0000000010005d22       0x52 ..\..\libs\ble\libbtstack.a(le_device_db_memory.o)
                0x0000000010005d22                le_device_db_init
 .text.le.db    0x0000000010005d74      0x144 ..\..\libs\ble\libbtstack.a(le_device_db_memory.o)
                0x0000000010005d74                le_device_db_info
                0x0000000010005dc4                le_device_db_encryption_set
                0x0000000010005e2c                le_device_db_encryption_get
 .text          0x0000000010005eb8       0x24 ..\..\libs\ble\libbtstack.a(gatt_server.o)
                0x0000000010005eb8                att_server_send_func_get
 .text.ble.indicate
                0x0000000010005edc       0x68 ..\..\libs\ble\libbtstack.a(gatt_server.o)
                0x0000000010005edc                ble_send_indicate_packet
                0x0000000010005eee                ble_indicate_for_handle
 .text.client.get_context
                0x0000000010005f44       0x18 ..\..\libs\ble\libbtstack.a(gatt_client.o)
                0x0000000010005f44                gatt_client_get_context_for_handle
 .text.client.request_can_send
                0x0000000010005f5c       0x28 ..\..\libs\ble\libbtstack.a(gatt_client.o)
                0x0000000010005f5c                att_client_request_can_send_now_event
 .text.client.send_req
                0x0000000010005f84       0x16 ..\..\libs\ble\libbtstack.a(gatt_client.o)
                0x0000000010005f84                btstack_ble_client_send_req
 .text          0x0000000010005f9a      0x1b0 ..\..\libs\ble\libbtstack.a(att_server.o)
                0x00000000100060b6                att_server_handler_list_init
                0x00000000100060be                att_server_can_send_packet_now
 .text.server.register_service
                0x000000001000614a       0x30 ..\..\libs\ble\libbtstack.a(att_server.o)
                0x000000001000614a                att_server_register_service_handler
 .text.server.init
                0x000000001000617a       0x5e ..\..\libs\ble\libbtstack.a(att_server.o)
                0x000000001000617a                att_server_init
 .text.server.packet_handler
                0x00000000100061d8      0x18e ..\..\libs\ble\libbtstack.a(att_server.o)
 .text.att.event_handler
                0x0000000010006366      0x160 ..\..\libs\ble\libbtstack.a(att_server.o)
 .text.server.indicate
                0x00000000100064c6       0x98 ..\..\libs\ble\libbtstack.a(att_server.o)
                0x00000000100064c6                att_server_indicate
 .text.server.mtu_get
                0x000000001000655e       0x24 ..\..\libs\ble\libbtstack.a(att_server.o)
                0x000000001000655e                ble_att_get_mtu
 .text          0x0000000010006582      0x1da ..\..\libs\ble\libbtstack.a(att_dispatch.o)
                0x0000000010006678                att_dispatch_connected_event
                0x00000000100066ce                att_dispatch_disconnected_event
                0x00000000100066f6                att_dispatch_connect_param_update_event
                0x0000000010006724                att_dispatch_encryption_change_event
                0x0000000010006754                att_dispatch_sm_event
 .text.att.is_register_client
                0x000000001000675c        0xc ..\..\libs\ble\libbtstack.a(att_dispatch.o)
                0x000000001000675c                att_dispatch_client_is_register
 .text.att.register_server
                0x0000000010006768       0x14 ..\..\libs\ble\libbtstack.a(att_dispatch.o)
                0x0000000010006768                att_dispatch_register_server
 .text.att.dispatch_server
                0x000000001000677c        0x6 ..\..\libs\ble\libbtstack.a(att_dispatch.o)
                0x000000001000677c                att_dispatch_can_send_now
 .text.att.dispatch_client
                0x0000000010006782        0xe ..\..\libs\ble\libbtstack.a(att_dispatch.o)
                0x0000000010006782                att_dispatch_client_request_can_send_now_event
 .text.att.server_mtu
                0x0000000010006790        0xe ..\..\libs\ble\libbtstack.a(att_dispatch.o)
                0x0000000010006790                att_dispatch_server_mtu_exchanged
 *fill*         0x000000001000679e        0x2 
 .text          0x00000000100067a0      0xddc ..\..\libs\ble\libbtstack.a(att_db.o)
                0x000000001000699a                att_uuid_for_handle
                0x00000000100069c4                att_set_db
                0x00000000100069cc                att_set_read_callback
                0x00000000100069d4                att_set_write_callback
                0x00000000100069dc                handle_exchange_mtu_request
                0x0000000010006a04                att_clear_transaction_queue
                0x0000000010006a20                att_prepare_handle_value_indication
                0x0000000010006a5e                att_handle_request
                0x0000000010007428                gatt_server_get_get_handle_range_for_service_with_uuid16
                0x00000000100074ae                gatt_server_get_value_handle_for_characteristic_with_uuid16
                0x00000000100074f0                gatt_server_get_client_configuration_handle_for_characteristic_with_uuid16
 .text.att.mtu_request
                0x000000001000757c       0x3a ..\..\libs\ble\libbtstack.a(att_db.o)
                0x000000001000757c                att_exchange_mtu_request
 .text.att_server.mtu_rsp
                0x00000000100075b6       0x2a ..\..\libs\ble\libbtstack.a(att_db.o)
                0x00000000100075b6                handle_exchange_mtu_response
 .text          0x00000000100075e0        0x2 ..\..\libs\ble\libbtstack.a(hci_transport_h3_controller.o)
                0x00000000100075e0                hci_init_var
 .text          0x00000000100075e2       0x12 ..\..\libs\ble\libbtstack.a(hci_transport_dummy.o)
                0x00000000100075e2                hci_iodm_init
                0x00000000100075e4                hci_transport_setup
 .text          0x00000000100075f4       0x18 ..\..\libs\ble\libbtstack.a(btstack_hal.o)
                0x00000000100075f4                hal_tick_init
                0x00000000100075fa                hal_tick_set_handler
 .text          0x000000001000760c      0x114 ..\..\libs\ble\libbtstack.a(btstack_api.o)
                0x000000001000760c                btstack_ble_enable_scan
                0x000000001000765e                btstack_ble_enable_adv
                0x0000000010007664                btstack_ble_disable_adv
                0x000000001000766a                btstack_ble_set_adv_param
                0x00000000100076ac                btstack_ble_sm_passkey_input
                0x00000000100076c2                btstack_ble_sm_send_security_request
                0x00000000100076c6                btstack_ble_ctrl_connection_latency
                0x00000000100076d2                btstack_ble_single_tone_mode_enter
                0x00000000100076ee                btstack_ble_set_random_static_addr
                0x00000000100076fe                btstack_ble_add_dev_to_white_list
                0x0000000010007700                btstack_ble_rmv_dev_from_white_list
                0x0000000010007702                btstack_ble_set_ext_adv_param
                0x0000000010007704                btstack_ble_disable_scan
                0x0000000010007706                btstack_ble_set_scan_param
                0x0000000010007708                btstack_ble_conn_by_addr
                0x000000001000770a                btstack_ble_rslv_enable
                0x000000001000770c                btstack_ble_rslv_renew_to_set
                0x000000001000770e                btstack_ble_add_dev_to_ral_list
                0x0000000010007710                btstack_ble_rmv_dev_from_ral_list
                0x0000000010007712                btstack_var_init
                0x000000001000771c                btstack_ble_get_conn_rssi
 .text.stack.sleep
                0x0000000010007720       0x24 ..\..\libs\ble\libbtstack.a(btstack_api.o)
                0x0000000010007720                btstack_exit_sleep
                0x000000001000772c                btstack_enter_sleep
 .text.ble.hci  0x0000000010007744      0x100 ..\..\libs\ble\libbtstack.a(btstack_api.o)
                0x0000000010007744                btstack_ble_set_adv_data
                0x0000000010007754                btstack_ble_set_scan_rsp_data
                0x0000000010007764                btstack_ble_disconnect
                0x000000001000777e                btstack_ble_set_adv_interval
                0x00000000100077b0                btstack_ble_ll_update_conn_param
 .text.stack.setup
                0x0000000010007844       0x4c ..\..\libs\ble\libbtstack.a(btstack_api.o)
 .text.stack.api
                0x0000000010007890       0x34 ..\..\libs\ble\libbtstack.a(btstack_api.o)
                0x00000000100078b0                btstack_init
 .text          0x00000000100078c4       0x40 ..\..\libs\ble\libbtstack.a(ble_api.o)
                0x00000000100078f0                ble_msg_free_prepare
 .text.stack.api
                0x0000000010007904       0x56 ..\..\libs\ble\libbtstack.a(ble_api.o)
                0x0000000010007904                btstack_deinit
                0x000000001000792c                ble_setup
 .text.ble.api.adv_dis
                0x000000001000795a        0xc ..\..\libs\ble\libbtstack.a(ble_api.o)
                0x000000001000795a                ble_adv_dis
 .text.ble.api.adv_en
                0x0000000010007966        0xc ..\..\libs\ble\libbtstack.a(ble_api.o)
                0x0000000010007966                ble_adv_en
 .text.ble.api.discon
                0x0000000010007972        0xe ..\..\libs\ble\libbtstack.a(ble_api.o)
                0x0000000010007972                ble_disconnect
 .text.ble.api.adv_param.set
                0x0000000010007980       0xf8 ..\..\libs\ble\libbtstack.a(ble_api.o)
                0x0000000010007980                ble_set_adv_param
 .text.ble.api.regist
                0x0000000010007a78        0x8 ..\..\libs\ble\libbtstack.a(ble_api.o)
                0x0000000010007a78                ble_init_callback_register
                0x0000000010007a7c                ble_vs_tbox_init_callback_register
 .text          0x0000000010007a80       0x44 ..\..\libs\ble\libbtstack.a(txpkt.o)
                0x0000000010007a80                txpkt_mem_init
                0x0000000010007a9a                txpkt_malloc
                0x0000000010007aa6                txpkt_free
                0x0000000010007ab0                txpkt_list_pop_front
                0x0000000010007aba                txpkt_list_extract
 .text          0x0000000010007ac4       0x8e ..\..\libs\ble\libbtstack.a(rf.o)
                0x0000000010007ac4                rf_off
                0x0000000010007af0                rf_reset
                0x0000000010007af2                rf_init
 .text.rf.tx_tone
                0x0000000010007b52       0x54 ..\..\libs\ble\libbtstack.a(rf.o)
                0x0000000010007b52                rf_single_tone_enter
 .text          0x0000000010007ba6      0x402 ..\..\libs\ble\libbtstack.a(hct_proc.o)
                0x0000000010007f08                hct_register_handler_evt
                0x0000000010007f10                hct_register_handler_acl
                0x0000000010007f18                hct_acl_block_request
                0x0000000010007f68                hct_init_do
 *fill*         0x0000000010007fa8       0x58 
 .text          0x0000000010008000      0x2dc ..\..\libs\ble\libbtstack.a(hct.o)
                0x0000000010008000                hct_init
                0x0000000010008010                hci_send_2_host
                0x0000000010008044                hci_cmd_send_2_controller
                0x00000000100080f4                hci_acl_send_2_controller
                0x0000000010008200                hci_malloc_for_cmd_tmpl
                0x0000000010008252                hci_malloc_for_acl_tx
                0x0000000010008270                hci_ble_conhdl_register
                0x000000001000827e                hci_ble_conhdl_unregister
 .text          0x00000000100082dc      0x17a ..\..\libs\ble\libbtstack.a(mgr_hci.o)
                0x0000000010008442                hci_le_rd_buff_size
 .text.le.mgr   0x0000000010008456       0x38 ..\..\libs\ble\libbtstack.a(mgr_hci.o)
                0x0000000010008456                hci_command_mgr_func
 .text          0x000000001000848e      0x440 ..\..\libs\ble\libbtstack.a(mgr.o)
                0x000000001000848e                mgr_cmd_cmp_send
                0x00000000100084b6                mgr_cmd_stat_send
                0x00000000100084de                mgr_is_dev_connected
                0x0000000010008548                mgr_ral_is_empty
                0x000000001000854c                mgr_ch_map_update
                0x0000000010008658                mgr_init
                0x0000000010008758                mgr_clk_acc_set
                0x0000000010008796                mgr_link_disc
                0x00000000100087ca                mgr_le_evt_mask_check
                0x00000000100087e4                mgr_le_get_features
                0x0000000010008840                mgr_le_get_tbox_feat
                0x000000001000884e                mgr_plan_elt_get
                0x000000001000885c                mgr_act_get_free
                0x00000000100088ac                mgr_act_set_free
 .text          0x00000000100088ce      0x686 ..\..\libs\ble\libbtstack.a(ll_adv.o)
                0x000000001000896e                ll_adv_hdl_to_idx
                0x00000000100089be                hci_le_set_adv_param_cmd_func
                0x0000000010008b82                hci_le_set_adv_data_cmd_func
                0x0000000010008c4e                hci_le_set_scan_rsp_data_cmd_func
                0x0000000010008d1a                hci_le_set_adv_en_cmd_func
 .text.le.ll_adv.con
                0x0000000010008f54      0x27c ..\..\libs\ble\libbtstack.a(ll_adv.o)
                0x0000000010008f54                ble_adv_end_con_ind
 .text.le.ll_adv
                0x00000000100091d0      0x2ea ..\..\libs\ble\libbtstack.a(ll_adv.o)
                0x00000000100091d0                ble_adv_end_ind_func
 *fill*         0x00000000100094ba        0x2 
 .text          0x00000000100094bc      0xd3e ..\..\libs\ble\libbtstack.a(ll_con_upd.o)
                0x0000000010009e08                hci_le_con_upd_cmd_func
                0x0000000010009f92                ll_op_con_upd_ind_func
                0x000000001000a034                ble_con_param_upd_cfm_func
                0x000000001000a0ac                ble_con_offset_upd_ind_func
                0x000000001000a0fe                ll_con_move_cb
 .text.le.ll_cntl.pdu
                0x000000001000a1fa      0x332 ..\..\libs\ble\libbtstack.a(ll_con_upd.o)
                0x000000001000a1fa                ll_con_update_ind_func
                0x000000001000a36a                ll_con_param_req_func
                0x000000001000a48e                ll_con_param_rsp_func
 .text          0x000000001000a52c      0x198 ..\..\libs\ble\libbtstack.a(ll_cntl.o)
                0x000000001000a52c                ble_cntl_rx_ind_func
 .text.le.ll_cntl.pdu
                0x000000001000a6c4       0x1a ..\..\libs\ble\libbtstack.a(ll_cntl.o)
 .text.le.ll_cntl.send
                0x000000001000a6de       0xa2 ..\..\libs\ble\libbtstack.a(ll_cntl.o)
                0x000000001000a6de                ll_cntl_send
 .text.le.ll_cntl.pdu
                0x000000001000a780      0x112 ..\..\libs\ble\libbtstack.a(ll_clk_acc.o)
                0x000000001000a780                ll_clk_acc_req_func
                0x000000001000a7da                ll_clk_acc_rsp_func
 .text          0x000000001000a892      0x1b8 ..\..\libs\ble\libbtstack.a(ll_chmap_upd.o)
                0x000000001000a9ba                ll_op_ch_map_upd_ind_func
                0x000000001000aa22                ble_ch_map_upd_cfm_func
 .text.le.ll_cntl.pdu
                0x000000001000aa4a      0x1da ..\..\libs\ble\libbtstack.a(ll_chmap_upd.o)
                0x000000001000aa4a                ll_channel_map_ind_func
                0x000000001000ab7a                ll_min_used_channels_ind_func
 .text.le.ll_cntl
                0x000000001000ac24       0x68 ..\..\libs\ble\libbtstack.a(ll.o)
                0x000000001000ac24                ll_init
 .text.le.ll_cntl.start
                0x000000001000ac8c      0x236 ..\..\libs\ble\libbtstack.a(ll.o)
                0x000000001000ac8c                ll_start
 .text          0x000000001000aec2      0x1d0 ..\..\libs\ble\libbtstack.a(ble_hal.o)
                0x000000001000aec2                ble_get_rslv_var
                0x000000001000aec6                ble_hal_init
                0x000000001000b08a                ble_ch_assess_data_get
 *fill*         0x000000001000b092       0x6e 
 .text          0x000000001000b100      0x52a ..\..\libs\ble\libbtstack.a(ble_con.o)
                0x000000001000b100                ble_con_start_do
                0x000000001000b128                ble_con_start
                0x000000001000b500                ble_con_stop
                0x000000001000b580                ble_con_offset_get
                0x000000001000b5c0                ble_con_pref_slave_latency_set
                0x000000001000b5fc                ble_con_peer_sca_set
 .text.le.con   0x000000001000b62a       0x84 ..\..\libs\ble\libbtstack.a(ble_con.o)
                0x000000001000b62a                ble_get_con_var
                0x000000001000b632                ble_get_con_rssi
                0x000000001000b648                ble_con_init
 .text          0x000000001000b6ae       0x62 ..\..\libs\ble\libbtstack.a(ble_adv.o)
                0x000000001000b6ae                ble_get_adv_var
                0x000000001000b6b6                ble_adv_init
 .text          0x000000001000b710      0x13e ..\..\libs\ble\libbtstack.a(ble_buf.o)
                0x000000001000b710                ble_buf_init_do
                0x000000001000b806                ble_buf_init
 *fill*         0x000000001000b84e       0x32 
 .text.bb.buf   0x000000001000b880       0x98 ..\..\libs\ble\libbtstack.a(ble_buf.o)
                0x000000001000b880                ble_buf_acl_tx_elt_get
                0x000000001000b8c0                ble_buf_acl_tx_elt_set
 .text.le.stack
                0x000000001000b918       0x28 ..\..\libs\ble\libbtstack.a(ble_buf.o)
                0x000000001000b918                ble_msg_malloc
                0x000000001000b920                ble_msg_free
                0x000000001000b928                ble_msg_wrap
                0x000000001000b936                ble_msg_unwrap
 .text          0x000000001000b940      0x110 ..\..\libs\ble\libbtstack.a(bb_int.o)
                0x000000001000b940                bb_sleep_init
                0x000000001000b942                bb_driver_init
 *fill*         0x000000001000ba50       0xb0 
 .text.bb.aes   0x000000001000bb00       0xf4 ..\..\libs\ble\libbtstack.a(bb_int.o)
                0x000000001000bb00                bb_aes_encrypt
 .text          0x000000001000bbf4      0x292 ..\..\libs\ble\libbtstack.a(bb.o)
                0x000000001000bc16                bb_rand_init
                0x000000001000bc1e                bb_get_heap_info
                0x000000001000bc30                bb_var_init
                0x000000001000bc38                bb_nanos_mem_init
                0x000000001000bc7e                bb_reset
                0x000000001000bd0a                bb_init
                0x000000001000be2a                bb_off
 .text          0x000000001000be86       0x32 ..\..\libs\ble\libbtstack.a(extern_ble.o)
                0x000000001000beae                ble_sync_link_info
                0x000000001000beb4                hci_event_debug_en
 .text          0x000000001000beb8       0x60 ..\..\libs\ble\libbtstack.a(l2cap.o)
                0x000000001000bf02                l2cap_register_packet_handler
                0x000000001000bf0a                l2cap_max_le_mtu
 .text.stk.l2cap.txreq
                0x000000001000bf18       0x96 ..\..\libs\ble\libbtstack.a(l2cap.o)
 .text.stack.l2cap
                0x000000001000bfae       0xf6 ..\..\libs\ble\libbtstack.a(l2cap.o)
                0x000000001000c088                l2cap_get_outgoing_buffer
                0x000000001000c09a                l2cap_reserve_packet_buffer
                0x000000001000c0a0                l2cap_release_packet_buffer
 .text.stack.handler.l2cap
                0x000000001000c0a4      0x11a ..\..\libs\ble\libbtstack.a(l2cap.o)
                0x000000001000c1ba                l2cap_can_send_fixed_channel_packet_now
 .text.stack.l2cap.gap
                0x000000001000c1be       0x20 ..\..\libs\ble\libbtstack.a(l2cap.o)
                0x000000001000c1be                gap_request_connection_parameter_update
 .text.stack.setup
                0x000000001000c1de       0x70 ..\..\libs\ble\libbtstack.a(l2cap.o)
                0x000000001000c1de                l2cap_init
                0x000000001000c22c                l2cap_register_fixed_channel
 .text.stack.setup
                0x000000001000c24e        0x2 ..\..\libs\ble\libbtstack.a(hci_dump.o)
                0x000000001000c24e                hci_dump_open
 *fill*         0x000000001000c250        0x0 
 .text.stack.hci_send
                0x000000001000c250      0x322 ..\..\libs\ble\libbtstack.a(hci_cmd.o)
                0x000000001000c250                hci_cmd_create_from_template
 .text          0x000000001000c572        0x2 ..\..\libs\ble\libbtstack.a(btstack_run_loop.o)
                0x000000001000c572                thread_nanos_task_create
 *fill*         0x000000001000c574        0xc 
 .text.stack.run_loop
                0x000000001000c580      0x16a ..\..\libs\ble\libbtstack.a(btstack_run_loop.o)
                0x000000001000c580                btstack_run_loop_set_timer_handler
                0x000000001000c584                btstack_run_loop_set_data_source_handler
                0x000000001000c588                btstack_run_loop_set_data_source_fd
                0x000000001000c58c                btstack_run_loop_get_data_source_fd
                0x000000001000c590                btstack_run_loop_enable_data_source_callbacks
                0x000000001000c59c                btstack_run_loop_disable_data_source_callbacks
                0x000000001000c5ac                btstack_run_loop_add_data_source
                0x000000001000c5be                btstack_run_loop_remove_data_source
                0x000000001000c5d0                btstack_run_loop_set_timer
                0x000000001000c5ea                btstack_run_loop_set_timer_context
                0x000000001000c5ee                btstack_run_loop_get_timer_context
                0x000000001000c600                btstack_run_loop_set_trig_ticks
                0x000000001000c63c                btstack_run_loop_add_timer
                0x000000001000c66c                btstack_run_loop_remove_timer
                0x000000001000c6a4                btstack_run_loop_get_ticks
                0x000000001000c6ae                btstack_run_loop_ticks_for_ms
                0x000000001000c6b4                btstack_run_loop_get_time_ms
                0x000000001000c6c0                btstack_run_loop_timer_dump
 .text.stack.setup
                0x000000001000c6ea       0x32 ..\..\libs\ble\libbtstack.a(btstack_run_loop.o)
                0x000000001000c6ea                btstack_run_loop_init
 .text          0x000000001000c71c       0x10 ..\..\libs\ble\libbtstack.a(btstack_main.o)
                0x000000001000c71c                btstack_ble_set_init_callback
                0x000000001000c724                btstack_ble_vs_tbox_set_init_callback
 .text.stack.handler
                0x000000001000c72c       0x60 ..\..\libs\ble\libbtstack.a(btstack_main.o)
 .text.stack.ble.setup
                0x000000001000c78c        0x4 ..\..\libs\ble\libbtstack.a(btstack_main.o)
                0x000000001000c78c                btstack_ble_init
 .text.stack.setup
                0x000000001000c790       0x34 ..\..\libs\ble\libbtstack.a(btstack_main.o)
                0x000000001000c790                btstack_main
 .text          0x000000001000c7c4       0x76 ..\..\libs\ble\libbtstack.a(nanos.o)
                0x000000001000c7c4                nanos_init
                0x000000001000c7fa                nanos_var_init
 .text          0x000000001000c83a       0x34 ..\..\libs\ble\libbtstack.a(bb_sche.o)
                0x000000001000c83a                bb_sche_frag_ble_dur_set
                0x000000001000c84c                bb_sche_init
 .text          0x000000001000c86e       0xae ..\..\libs\ble\libbtstack.a(patch.o)
                0x000000001000c86e                bb_patch_dummy
                0x000000001000c870                bb_patch_init
 .text.bb.aes   0x000000001000c91c      0x19a ..\..\libs\ble\libbtstack.a(aes.o)
                0x000000001000c91c                aes_init
                0x000000001000c966                aes_alloc
                0x000000001000c988                aes_start
                0x000000001000c9c6                aes_encrypt
                0x000000001000ca12                aes_rand
                0x000000001000ca4e                aes_result_handler
 .text          0x000000001000cab6       0x38 ..\..\libs\ble\libbtstack.a(extern.o)
                0x000000001000cacc                bt_rf_get_fcc_param
                0x000000001000cad4                private_freq_bands_hook
                0x000000001000cad8                private_access_code_hook
                0x000000001000cae2                ble_tbox_feature_req_enabled
                0x000000001000cae6                ble_chmap_instant_pass_discon
                0x000000001000caea                ble_adv_duration_get
 .text          0x000000001000caee       0x9c ..\..\libs\ble\libbtstack.a(vs.o)
                0x000000001000caee                vs_init
                0x000000001000cb2a                vs_reset_complete_evt
 .text          0x000000001000cb8a      0x2ca ..\..\libs\ble\libbtstack.a(rf_mate.o)
                0x000000001000cc70                rfphy_tx
                0x000000001000ce22                rfphy_test
                0x000000001000ce24                ble_rf_external_pa_init
 .text.rfphy.other
                0x000000001000ce54       0x8a ..\..\libs\ble\libbtstack.a(rf_mate.o)
 .text.rf.param.init
                0x000000001000cede       0xf4 ..\..\libs\ble\libbtstack.a(rf_mate.o)
 .text.bb.rf    0x000000001000cfd2       0x7a ..\..\libs\ble\libbtstack.a(rf_mate.o)
                0x000000001000cfd2                rfphy_sw_ctrl
                0x000000001000d002                rfphy_tx_pwr
 .text.bb.phy.tx
                0x000000001000d04c       0x8c ..\..\libs\ble\libbtstack.a(rf_mate.o)
                0x000000001000d04c                rfphy_tx_tone
 .text          0x000000001000d0d8        0x2 ..\..\libs\ble\libbtstack.a(ble_hook.o)
                0x000000001000d0d8                ble_hal_init_hook
 .text          0x000000001000d0da        0x4 ..\..\libs\ble\libbtstack.a(adv_hook.o)
                0x000000001000d0da                ble_adv_end_ind_hook
 .text          0x000000001000d0de      0x128 ..\..\libs\ble\libbtstack.a(hct_msg.o)
                0x000000001000d0de                hci_look_for_cmd_desc
                0x000000001000d168                hci_look_for_evt_desc
                0x000000001000d1aa                hci_look_for_dbg_evt_desc
                0x000000001000d1c4                hci_look_for_le_evt_desc
 .text          0x000000001000d206      0x220 ..\..\libs\ble\libbtstack.a(mgr_test.o)
                0x000000001000d228                ble_test_end_ind_func
                0x000000001000d26a                hci_le_rx_test_v1_cmd_func
                0x000000001000d2b0                hci_le_tx_test_v1_cmd_func
                0x000000001000d314                hci_le_rx_test_v2_cmd_func
                0x000000001000d374                hci_le_tx_test_v2_cmd_func
                0x000000001000d3ea                hci_le_test_end_cmd_func
 .text          0x000000001000d426       0x3c ..\..\libs\ble\libbtstack.a(mgr_proc.o)
 .text          0x000000001000d462       0x60 ..\..\libs\ble\libbtstack.a(ll_version.o)
                0x000000001000d48e                ble_ll_version_get
 .text.le.ll_cntl.pdu
                0x000000001000d4c2      0x14e ..\..\libs\ble\libbtstack.a(ll_version.o)
                0x000000001000d4c2                ll_version_ind_func
 .text          0x000000001000d610      0x174 ..\..\libs\ble\libbtstack.a(ll_tbox_prod_test.o)
                0x000000001000d6dc                ll_op_tbox_prod_test_ind_func
                0x000000001000d710                ll_tbox_prod_test_proc_start
 .text.le.ll_cntl.pdu
                0x000000001000d784       0xae ..\..\libs\ble\libbtstack.a(ll_tbox_prod_test.o)
                0x000000001000d784                ll_tbox_prod_test_req_func
                0x000000001000d7fe                ll_tbox_prod_test_rsp_func
 .text          0x000000001000d832      0x28a ..\..\libs\ble\libbtstack.a(ll_tbox_freq_cal.o)
                0x000000001000d916                ll_op_tbox_freq_cal_ind_func
                0x000000001000d94a                ll_op_tbox_freq_cal_end_ind_func
                0x000000001000da44                ll_tbox_freq_cal_proc_start
 .text.le.ll_cntl.pdu
                0x000000001000dabc      0x138 ..\..\libs\ble\libbtstack.a(ll_tbox_freq_cal.o)
                0x000000001000dabc                ll_tbox_freq_cal_req_func
                0x000000001000db6c                ll_tbox_freq_cal_rsp_func
 .text          0x000000001000dbf4      0x156 ..\..\libs\ble\libbtstack.a(ll_tbox_feature.o)
                0x000000001000dc96                ll_op_tbox_feat_exch_ind_func
                0x000000001000dcca                ll_tbox_feat_proc_start
 .text.le.ll_cntl.pdu
                0x000000001000dd4a      0x190 ..\..\libs\ble\libbtstack.a(ll_tbox_feature.o)
                0x000000001000dd4a                ll_tbox_feat_req_func
                0x000000001000de68                ll_tbox_feat_rsp_func
 .text          0x000000001000deda      0x2b6 ..\..\libs\ble\libbtstack.a(ll_proc.o)
                0x000000001000defa                hci_command_ll_func
                0x000000001000df32                ble_acl_rx_ind_func
                0x000000001000e0a6                ble_acl_tx_cfm_func
                0x000000001000e0b6                ll_cmd_cmp_send
                0x000000001000e0e8                hci_vs_set_pref_slave_latency_cmd_func
                0x000000001000e13e                hci_vs_tbox_prod_test_req_cmd_func
                0x000000001000e168                ll_cmd_stat_send
 *fill*         0x000000001000e190        0x0 
 .text          0x000000001000e190      0xa26 ..\..\libs\ble\libbtstack.a(ll_phy_upd.o)
                0x000000001000ea56                ll_op_phy_upd_ind_func
                0x000000001000eaf2                ble_phy_upd_cfm_func
                0x000000001000eb32                ll_phy_upd_proc_start
 .text.le.ll_cntl.pdu
                0x000000001000ebb6      0x264 ..\..\libs\ble\libbtstack.a(ll_phy_upd.o)
                0x000000001000ebb6                ll_phy_req_func
                0x000000001000ec8c                ll_phy_rsp_func
                0x000000001000ed26                ll_phy_update_ind_func
 .text          0x000000001000ee1a      0x3ae ..\..\libs\ble\libbtstack.a(ll_length.o)
                0x000000001000f0be                ll_op_length_upd_ind_func
                0x000000001000f12c                ll_length_proc_start_for_param
                0x000000001000f194                ll_length_proc_start
 .text.le.ll_cntl.pdu
                0x000000001000f1c8      0x214 ..\..\libs\ble\libbtstack.a(ll_length.o)
                0x000000001000f1c8                ll_length_req_func
                0x000000001000f33a                ll_length_rsp_func
 .text          0x000000001000f3dc      0x2c6 ..\..\libs\ble\libbtstack.a(ll_feature.o)
                0x000000001000f5a2                ll_op_feats_exch_ind_func
                0x000000001000f61e                ll_feature_exchange_proc_start
                0x000000001000f66e                ble_ll_feature_exchange_get
 .text.le.ll_cntl.pdu
                0x000000001000f6a2      0x168 ..\..\libs\ble\libbtstack.a(ll_feature.o)
                0x000000001000f6a2                ll_feature_req_func
                0x000000001000f716                ll_slave_feature_req_func
                0x000000001000f78a                ll_feature_rsp_func
 *fill*         0x000000001000f80a        0x2 
 .text          0x000000001000f80c      0x850 ..\..\libs\ble\libbtstack.a(ll_encrypt.o)
                0x000000001000fdee                hci_le_ltk_req_reply_cmd_func
                0x000000001000fe6c                hci_le_ltk_req_neg_reply_cmd_func
                0x000000001000ff06                ll_encrypt_ind_func
                0x000000001000fff2                ll_op_encrypt_ind_func
 .text.le.ll_cntl.pdu
                0x000000001001005c      0x348 ..\..\libs\ble\libbtstack.a(ll_encrypt.o)
                0x000000001001005c                ll_pause_enc_req_func
                0x00000000100100e2                ll_pause_enc_rsp_func
                0x000000001001014e                ll_enc_req_func
                0x0000000010010268                ll_enc_rsp_func
                0x00000000100102ee                ll_start_enc_req_func
                0x000000001001034a                ll_start_enc_rsp_func
 .text          0x00000000100103a4      0x128 ..\..\libs\ble\libbtstack.a(ll_disconnect.o)
                0x00000000100103a4                ll_stopped_ind_func
                0x000000001001041c                hci_disconnect_cmd_func
 .text          0x00000000100104cc       0x28 ..\..\libs\ble\libbtstack.a(ble_test.o)
                0x00000000100104cc                ble_test_init
                0x00000000100104ec                ble_get_test_var
 .text.bb.ble.test.start
                0x00000000100104f4       0x2e ..\..\libs\ble\libbtstack.a(ble_test.o)
                0x00000000100104f4                ble_test_start
 .text          0x0000000010010522       0x42 ..\..\libs\ble\libbtstack.a(ble.o)
                0x0000000010010522                ble_init
 .text.ble.var.init
                0x0000000010010564       0x52 ..\..\libs\ble\libbtstack.a(ble.o)
                0x0000000010010564                ble_var_init
 .text.bb.timer.ind
                0x00000000100105b6       0x24 ..\..\libs\ble\libbtstack.a(bb_alarm.o)
                0x00000000100105b6                bb_timer_end_ind
 .text.bb.timer.init
                0x00000000100105da       0xcc ..\..\libs\ble\libbtstack.a(bb_alarm.o)
                0x00000000100105da                bb_timer_init
 .text.stack.l2cap_sig
                0x00000000100106a6      0x126 ..\..\libs\ble\libbtstack.a(l2cap_signaling.o)
                0x00000000100106a6                l2cap_create_signaling_le
 .text          0x00000000100107cc       0xb6 ..\..\libs\ble\libbtstack.a(vs_proc.o)
 .text.bb.vs.fcc_ble.do
                0x0000000010010882       0x8a ..\..\libs\ble\libbtstack.a(vs_fcc.o)
                0x0000000010010882                vs_ble_test_do
 .text.bb.vs.fcc
                0x000000001001090c       0xc2 ..\..\libs\ble\libbtstack.a(vs_fcc.o)
                0x000000001001090c                vs_ble_test
                0x0000000010010910                vs_fcc_test_cmd
 .text          0x00000000100109ce        0x4 ..\..\libs\ble\libbtstack.a(ble_sync.o)
                0x00000000100109ce                ble_get_sync_var
 .text          0x00000000100109d2        0x8 ..\..\libs\ble\libbtstack.a(ble_scan.o)
                0x00000000100109d2                ble_get_scan_var
                0x00000000100109d6                ble_get_ssync_var
 .text          0x00000000100109da        0x4 ..\..\libs\ble\libbtstack.a(ble_init.o)
                0x00000000100109da                ble_get_init_var
 *(.rodata*)
 *fill*         0x00000000100109de        0x2 
 .rodata.str1.4
                0x00000000100109e0       0x3b Output\obj\driver\driver_lowpwr.o
 *fill*         0x0000000010010a1b        0x1 
 .rodata.adv    0x0000000010010a1c        0x7 Output\obj\project\ble_peripheral\ble\ble_adv.o
                0x0000000010010a1c                adv_data_const
 *fill*         0x0000000010010a23        0x1 
 .rodata        0x0000000010010a24       0x40 Output\obj\project\ble_peripheral\ble\ble_profile.o
                0x0000000010010a24                profile_data
 .rodata.str1.4
                0x0000000010010a64       0x4c Output\obj\project\ble_peripheral\bsp\bsp_uart_transfer.o
 .rodata        0x0000000010010ab0       0x10 Output\obj\project\ble_peripheral\strong_symbol.o
 .rodata.cm_next_freepage.str1.4
                0x0000000010010ac0        0xc ..\..\libs\cpu\libplatform.a(cm.o)
 .rodata.cm_movepage.str1.4
                0x0000000010010acc       0x10 ..\..\libs\cpu\libplatform.a(cm.o)
 .rodata.cm_release.str1.4
                0x0000000010010adc       0x22 ..\..\libs\cpu\libplatform.a(cm.o)
 *fill*         0x0000000010010afe        0x2 
 .rodata.cm_savepage.str1.4
                0x0000000010010b00       0x13 ..\..\libs\cpu\libplatform.a(cm.o)
 *fill*         0x0000000010010b13        0x1 
 .rodata.cm_check_loadpage.str1.4
                0x0000000010010b14       0x3b ..\..\libs\cpu\libplatform.a(cm.o)
 *fill*         0x0000000010010b4f        0x1 
 .rodata.cm_init.str1.4
                0x0000000010010b50       0x30 ..\..\libs\cpu\libplatform.a(cm.o)
 .rodata.platform_main.str1.4
                0x0000000010010b80       0x10 ..\..\libs\cpu\libplatform.a(main.o)
 .rodata.thread_btstack_create.str1.4
                0x0000000010010b90        0xc ..\..\libs\cpu\libplatform.a(startup.o)
 .rodata.startup.init.str1.4
                0x0000000010010b9c       0x2b ..\..\libs\cpu\libplatform.a(startup.o)
 *fill*         0x0000000010010bc7        0x1 
 .rodata.pll0_vco_band_trimming.str1.4
                0x0000000010010bc8       0x20 ..\..\libs\cpu\libplatform.a(pll.o)
 .rodata.patch_init.str1.4
                0x0000000010010be8       0x1b ..\..\libs\cpu\libplatform.a(patch.o)
 *fill*         0x0000000010010c03        0x1 
 .rodata.sys_rst_dump.str1.4
                0x0000000010010c04       0x45 ..\..\libs\cpu\libplatform.a(sys.o)
 *fill*         0x0000000010010c49        0x3 
 .rodata.str1.4
                0x0000000010010c4c       0x57 ..\..\libs\ble\libbtstack.a(hci.o)
 *fill*         0x0000000010010ca3        0x1 
 .rodata        0x0000000010010ca4       0x20 ..\..\libs\ble\libbtstack.a(btstack_util.o)
                0x0000000010010cb4                bluetooth_base_uuid
 .rodata        0x0000000010010cc4       0x10 ..\..\libs\ble\libbtstack.a(att_db.o)
 .rodata        0x0000000010010cd4       0x20 ..\..\libs\ble\libbtstack.a(hci_transport_dummy.o)
 .rodata.str1.4
                0x0000000010010cf4       0x19 ..\..\libs\ble\libbtstack.a(btstack_api.o)
 *fill*         0x0000000010010d0d        0x3 
 .rodata        0x0000000010010d10       0x21 ..\..\libs\ble\libbtstack.a(btstack_api.o)
 *fill*         0x0000000010010d31        0x3 
 .rodata.stack.api
                0x0000000010010d34       0x94 ..\..\libs\ble\libbtstack.a(btstack_api.o)
                0x0000000010010d34                btstack_basic_tbl
                0x0000000010010d44                btstack_ctl_tbl
                0x0000000010010db8                btstack_api_tbl
 .rodata.str1.4
                0x0000000010010dc8        0x9 ..\..\libs\ble\libbtstack.a(hct_proc.o)
 *fill*         0x0000000010010dd1        0x3 
 .rodata        0x0000000010010dd4       0x4c ..\..\libs\ble\libbtstack.a(hct_proc.o)
 .rodata.le.mgr_cntl.tbl
                0x0000000010010e20       0x68 ..\..\libs\ble\libbtstack.a(mgr_hci.o)
                0x0000000010010e20                mgr_hci_cmd_tbl
 .rodata.str1.4
                0x0000000010010e88       0x5c ..\..\libs\ble\libbtstack.a(ll_cntl.o)
                                         0x60 (size before relaxing)
 .rodata.le.ll_cntl.tbl
                0x0000000010010ee4      0x408 ..\..\libs\ble\libbtstack.a(ll_cntl.o)
                0x0000000010010ee4                ll_cntl_pdu_tbl
 .rodata.bb.tbl
                0x00000000100112ec        0x8 ..\..\libs\ble\libbtstack.a(ble_con.o)
                0x00000000100112ec                connect_req_dur_tab
 .rodata.bb.tbl
                0x00000000100112f4       0x10 ..\..\libs\ble\libbtstack.a(bb_utils.o)
                0x00000000100112f4                null_array
 .rodata.str1.4
                0x0000000010011304       0x21 ..\..\libs\ble\libbtstack.a(bb.o)
 *fill*         0x0000000010011325        0x3 
 .rodata        0x0000000010011328       0x24 ..\..\libs\ble\libbtstack.a(bb.o)
                0x0000000010011328                bb_hook
 .rodata.stack.l2cap
                0x000000001001134c        0x2 ..\..\libs\ble\libbtstack.a(l2cap.o)
 *fill*         0x000000001001134e        0x2 
 .rodata.str1.4
                0x0000000010011350       0x9d ..\..\libs\ble\libbtstack.a(hci_cmd.o)
                                         0xb5 (size before relaxing)
 *fill*         0x00000000100113ed        0x3 
 .rodata.btstakc.hci
                0x00000000100113f0        0x8 ..\..\libs\ble\libbtstack.a(hci_cmd.o)
                0x00000000100113f0                hci_num_of_packet_complete
 .rodata.stack.hci_send
                0x00000000100113f8      0x108 ..\..\libs\ble\libbtstack.a(hci_cmd.o)
                0x00000000100113f8                hci_le_tbox_prod_test_request
                0x0000000010011400                hci_le_set_pref_slave_latency
                0x0000000010011408                hci_le_write_rf_path_compensation
                0x0000000010011410                hci_le_read_rf_path_compensation
                0x0000000010011418                hci_le_transmit_power
                0x0000000010011420                hci_le_read_periodic_adv_list_size
                0x0000000010011428                hci_le_set_default_phy
                0x0000000010011430                hci_le_long_term_key_negative_reply
                0x0000000010011438                hci_le_long_term_key_request_reply
                0x0000000010011440                hci_le_rand
                0x0000000010011448                hci_le_encrypt
                0x0000000010011450                hci_le_connection_update
                0x0000000010011458                hci_le_add_device_to_per_adv_list
                0x0000000010011460                hci_le_per_advertising_terminate_sync
                0x0000000010011468                hci_le_per_advertising_creat_sync_cancel
                0x0000000010011470                hci_le_per_advertising_creat_sync
                0x0000000010011478                hci_ext_creat_connection
                0x0000000010011480                hci_le_set_ext_scan_enable
                0x0000000010011488                hci_le_set_ext_scan_parameters
                0x0000000010011490                hci_le_set_per_advertise_enable
                0x0000000010011498                hci_le_set_per_advertising_data
                0x00000000100114a0                hci_le_set_per_advertising_parameters
                0x00000000100114a8                hci_le_set_ext_advertise_enable
                0x00000000100114b0                hci_le_set_ext_scan_response_data
                0x00000000100114b8                hci_le_set_ext_advertising_data
                0x00000000100114c0                hci_le_set_ext_advertising_parameters
                0x00000000100114c8                hci_le_set_advertise_enable
                0x00000000100114d0                hci_le_set_scan_response_data
                0x00000000100114d8                hci_le_set_advertising_data
                0x00000000100114e0                hci_le_set_advertising_parameters
                0x00000000100114e8                hci_le_set_random_address
                0x00000000100114f0                hci_le_read_buffer_size
                0x00000000100114f8                hci_disconnect
 .rodata        0x0000000010011500       0x24 ..\..\libs\ble\libbtstack.a(bb_sche.o)
 .rodata.bb.tbl
                0x0000000010011524       0x81 ..\..\libs\ble\libbtstack.a(rf_mate.o)
 *fill*         0x00000000100115a5        0x3 
 .rodata        0x00000000100115a8       0xdc ..\..\libs\ble\libbtstack.a(hct_msg.o)
                0x00000000100115a8                hci_cmd_desc_root_tab
                0x00000000100115e8                hci_evt_desc_tab
                0x00000000100115f8                hci_evt_le_desc_tab
                0x0000000010011608                hci_cmd_desc_tab_vs
                0x0000000010011618                hci_cmd_desc_tab_le
                0x0000000010011664                hci_cmd_desc_tab_stat_par
                0x0000000010011664                hci_cmd_desc_tab_info_par
                0x0000000010011670                hci_cmd_desc_tab_ctrl_bb
 .rodata        0x0000000010011684       0x20 ..\..\libs\ble\libbtstack.a(mgr_proc.o)
 .rodata.le.ll_cntl.tbl
                0x00000000100116a4      0x118 ..\..\libs\ble\libbtstack.a(ll_proc.o)
                0x00000000100116a4                ll_msg_tbl
                0x000000001001178c                ll_hci_cmd_tbl
 .rodata.bb.tbl
                0x00000000100117bc       0x1c ..\..\libs\ble\libbtstack.a(ble.o)
                0x00000000100117bc                ble_ctl
 .rodata.str1.4
                0x00000000100117d8       0x1c ..\..\libs\ble\libbtstack.a(l2cap_signaling.o)
                                         0x2a (size before relaxing)
 .rodata        0x00000000100117f4       0x58 ..\..\libs\ble\libbtstack.a(l2cap_signaling.o)
 .rodata        0x000000001001184c       0x20 ..\..\libs\ble\libbtstack.a(vs_proc.o)
 *(.srodata*)
 .srodata       0x000000001001186c       0x18 ..\..\libs\ble\libbtstack.a(mgr.o)
 .srodata       0x0000000010011884        0x5 ..\..\libs\ble\libbtstack.a(ll_adv.o)
 *fill*         0x0000000010011889        0x3 
 .srodata       0x000000001001188c        0x8 ..\..\libs\ble\libbtstack.a(hct_msg.o)
                0x000000001001188c                hci_evt_dbg_desc_tab
                0x0000000010011890                hci_cmd_desc_tab_lk_ctrl
 *(.rela*)
 .rela.text.clk_clk32k_rtc_get
                0x0000000010011894        0x0 Output\obj\driver\driver_clk.o
 .rela.text.clk_saradc_clk_get
                0x0000000010011894        0x0 Output\obj\driver\driver_clk.o
 .rela.text.clk_clk2m_ks_get
                0x0000000010011894        0x0 Output\obj\driver\driver_clk.o
 .rela.text.wk0_edge_capture_config
                0x0000000010011894        0x0 Output\obj\driver\driver_clk.o
 .rela.text.gpio_edge_capture_config
                0x0000000010011894        0x0 Output\obj\driver\driver_clk.o
 .rela.text.gpio_edge_capture_config_custom
                0x0000000010011894        0x0 Output\obj\driver\driver_clk.o
 .rela.text.gpio_set_reset_pin
                0x0000000010011894        0x0 Output\obj\driver\driver_clk.o
 .rela.text.gpio_edge_pic_config
                0x0000000010011894        0x0 Output\obj\driver\driver_clk.o
 .rela.text.hsuart_init
                0x0000000010011894        0x0 Output\obj\driver\driver_clk.o
 .rela.text.hsuart_baud_config
                0x0000000010011894        0x0 Output\obj\driver\driver_clk.o
 .rela.text.hsuart_pic_config
                0x0000000010011894        0x0 Output\obj\driver\driver_clk.o
 .rela.text.keyscan_pic_config
                0x0000000010011894        0x0 Output\obj\driver\driver_clk.o
 .rela.text.ledc_pic_config
                0x0000000010011894        0x0 Output\obj\driver\driver_clk.o
 .rela.com_pwroff.mode2
                0x0000000010011894        0x0 Output\obj\driver\driver_clk.o
 .rela.com_sleep.lp_wakeup
                0x0000000010011894        0x0 Output\obj\driver\driver_clk.o
 .rela.text.lowpwr_get_wakeup_source
                0x0000000010011894        0x0 Output\obj\driver\driver_clk.o
 .rela.text.lowpwr_wk0_wakeup_config
                0x0000000010011894        0x0 Output\obj\driver\driver_clk.o
 .rela.text.lowpwr_gpio_wakeup_config
                0x0000000010011894        0x0 Output\obj\driver\driver_clk.o
 .rela.text.lowpwr_gpio_wakeup_config_custom
                0x0000000010011894        0x0 Output\obj\driver\driver_clk.o
 .rela.text.lowpwr_wakeup_config
                0x0000000010011894        0x0 Output\obj\driver\driver_clk.o
 .rela.com_pwroff.mode1
                0x0000000010011894        0x0 Output\obj\driver\driver_clk.o
 .rela.com_sleep.proc_do
                0x0000000010011894        0x0 Output\obj\driver\driver_clk.o
 .rela.com_sleep.sleep
                0x0000000010011894        0x0 Output\obj\driver\driver_clk.o
 .rela.text.rtc_pic_config
                0x0000000010011894        0x0 Output\obj\driver\driver_clk.o
 .rela.text.saradc_mic_init
                0x0000000010011894        0x0 Output\obj\driver\driver_clk.o
 .rela.text.saradc_init
                0x0000000010011894        0x0 Output\obj\driver\driver_clk.o
 .rela.text.saradc_deinit
                0x0000000010011894        0x0 Output\obj\driver\driver_clk.o
 .rela.text.saradc_set_baud
                0x0000000010011894        0x0 Output\obj\driver\driver_clk.o
 .rela.text.saradc_pic_config
                0x0000000010011894        0x0 Output\obj\driver\driver_clk.o
 .rela.com_periph.saradc.get_data
                0x0000000010011894        0x0 Output\obj\driver\driver_clk.o
 .rela.text.spi_init
                0x0000000010011894        0x0 Output\obj\driver\driver_clk.o
 .rela.text.tmr_pic_config
                0x0000000010011894        0x0 Output\obj\driver\driver_clk.o
 .rela.text.uart_init
                0x0000000010011894        0x0 Output\obj\driver\driver_clk.o
 .rela.text.uart_pic_config
                0x0000000010011894        0x0 Output\obj\driver\driver_clk.o
 .rela.text.uart_baud_config
                0x0000000010011894        0x0 Output\obj\driver\driver_clk.o
 .rela.text.app.proc.func
                0x0000000010011894        0x0 Output\obj\driver\driver_clk.o
 .rela.text.func
                0x0000000010011894        0x0 Output\obj\driver\driver_clk.o
 .rela.text.app.proc.bt
                0x0000000010011894        0x0 Output\obj\driver\driver_clk.o
 .rela.text.func.bt
                0x0000000010011894        0x0 Output\obj\driver\driver_clk.o
 .rela.text.func.idle
                0x0000000010011894        0x0 Output\obj\driver\driver_clk.o
 .rela.text.lowpwr_pwroff_wakeup_config
                0x0000000010011894        0x0 Output\obj\driver\driver_clk.o
 .rela.text.lowpwr.pwroff
                0x0000000010011894        0x0 Output\obj\driver\driver_clk.o
 .rela.text.ble_get_scan_data
                0x0000000010011894        0x0 Output\obj\driver\driver_clk.o
 .rela.text.ble_get_adv_data
                0x0000000010011894        0x0 Output\obj\driver\driver_clk.o
 .rela.text.ble_adv_param_init
                0x0000000010011894        0x0 Output\obj\driver\driver_clk.o
 .rela.text.ble_client_event_callback
                0x0000000010011894        0x0 Output\obj\driver\driver_clk.o
 .rela.text.ble_client_notify_callback
                0x0000000010011894        0x0 Output\obj\driver\driver_clk.o
 .rela.text.ble_client_init
                0x0000000010011894        0x0 Output\obj\driver\driver_clk.o
 .rela.text.ble_scan_en_test
                0x0000000010011894        0x0 Output\obj\driver\driver_clk.o
 .rela.text.ble_write_test
                0x0000000010011894        0x0 Output\obj\driver\driver_clk.o
 .rela.text.ble_write_to_server
                0x0000000010011894        0x0 Output\obj\driver\driver_clk.o
 .rela.text.ble_read_test
                0x0000000010011894        0x0 Output\obj\driver\driver_clk.o
 .rela.text.ble_txpkt_init
                0x0000000010011894        0x0 Output\obj\driver\driver_clk.o
 .rela.text.ble_periph_init
                0x0000000010011894        0x0 Output\obj\driver\driver_clk.o
 .rela.text.ble_sm_param_init
                0x0000000010011894        0x0 Output\obj\driver\driver_clk.o
 .rela.text.ble_scan_param_init
                0x0000000010011894        0x0 Output\obj\driver\driver_clk.o
 .rela.text.ble_central_init
                0x0000000010011894        0x0 Output\obj\driver\driver_clk.o
 .rela.text.bsp_ble_init
                0x0000000010011894        0x0 Output\obj\driver\driver_clk.o
 .rela.text.ble_enter_sleep_proc
                0x0000000010011894        0x0 Output\obj\driver\driver_clk.o
 .rela.text.ble_exit_sleep_proc
                0x0000000010011894        0x0 Output\obj\driver\driver_clk.o
 .rela.text.app.proc.ble
                0x0000000010011894        0x0 Output\obj\driver\driver_clk.o
 .rela.com_sleep.ble.sleep
                0x0000000010011894        0x0 Output\obj\driver\driver_clk.o
 .rela.text.ble_service_init
                0x0000000010011894        0x0 Output\obj\driver\driver_clk.o
 .rela.text.service_write_callback
                0x0000000010011894        0x0 Output\obj\driver\driver_clk.o
 .rela.text.service_read_callback
                0x0000000010011894        0x0 Output\obj\driver\driver_clk.o
 .rela.text.service_notify_event
                0x0000000010011894        0x0 Output\obj\driver\driver_clk.o
 .rela.text.ble_user_service_init
                0x0000000010011894        0x0 Output\obj\driver\driver_clk.o
 .rela.text.bsp.param
                0x0000000010011894        0x0 Output\obj\driver\driver_clk.o
 .rela.text.bsp.param.fota
                0x0000000010011894        0x0 Output\obj\driver\driver_clk.o
 .rela.com_text.timer
                0x0000000010011894        0x0 Output\obj\driver\driver_clk.o
 .rela.text.bsp.sys.init
                0x0000000010011894        0x0 Output\obj\driver\driver_clk.o
 .rela.text.user_uart_putchar
                0x0000000010011894        0x0 Output\obj\driver\driver_clk.o
 .rela.com_text.isr
                0x0000000010011894        0x0 Output\obj\driver\driver_clk.o
 .rela.text.uart_cmd_buff_error
                0x0000000010011894        0x0 Output\obj\driver\driver_clk.o
 .rela.text.uart_cmd_success_feedback
                0x0000000010011894        0x0 Output\obj\driver\driver_clk.o
 .rela.text.uart_transfer_init
                0x0000000010011894        0x0 Output\obj\driver\driver_clk.o
 .rela.com_periph.uart.send
                0x0000000010011894        0x0 Output\obj\driver\driver_clk.o
 .rela.text.uart_transfer_rx_event
                0x0000000010011894        0x0 Output\obj\driver\driver_clk.o
 .rela.text.startup.main
                0x0000000010011894        0x0 Output\obj\driver\driver_clk.o
 .rela.text.ble_get_local_bd_addr
                0x0000000010011894        0x0 Output\obj\driver\driver_clk.o
 .rela.text.bt_rf_get_param
                0x0000000010011894        0x0 Output\obj\driver\driver_clk.o
 .rela.com_sleep.rf.txpwr
                0x0000000010011894        0x0 Output\obj\driver\driver_clk.o
 .rela.text.ble_get_link_info
                0x0000000010011894        0x0 Output\obj\driver\driver_clk.o
 .rela.text.ble_put_link_info
                0x0000000010011894        0x0 Output\obj\driver\driver_clk.o
 .rela.text.thread_create_callback
                0x0000000010011894        0x0 Output\obj\driver\driver_clk.o
 .rela.text.xosc_get_xcfg
                0x0000000010011894        0x0 Output\obj\driver\driver_clk.o
 .rela.text.param_xosc_write
                0x0000000010011894        0x0 Output\obj\driver\driver_clk.o
 .rela.text.uart_debug_init_callback
                0x0000000010011894        0x0 Output\obj\driver\driver_clk.o
 .rela.text.audio_mic_power
                0x0000000010011894        0x0 Output\obj\driver\driver_clk.o
 .rela.text.audio_mic_analog_init
                0x0000000010011894        0x0 Output\obj\driver\driver_clk.o
 .rela.text.audio_micdc_trim_step0_init
                0x0000000010011894        0x0 Output\obj\driver\driver_clk.o
 .rela.text.audio_micdc_trim_step0_waiting
                0x0000000010011894        0x0 Output\obj\driver\driver_clk.o
 .rela.text.audio_micdc_trim_step0_run
                0x0000000010011894        0x0 Output\obj\driver\driver_clk.o
 .rela.text.audio_micdc_trim_step1_init
                0x0000000010011894        0x0 Output\obj\driver\driver_clk.o
 .rela.text.audio_micdc_trim_step1_waiting
                0x0000000010011894        0x0 Output\obj\driver\driver_clk.o
 .rela.text.audio_micdc_trim_step1_run
                0x0000000010011894        0x0 Output\obj\driver\driver_clk.o
 .rela.text.micin_config
                0x0000000010011894        0x0 Output\obj\driver\driver_clk.o
 .rela.text.audio_micin_trim_step0_init
                0x0000000010011894        0x0 Output\obj\driver\driver_clk.o
 .rela.text.audio_micin_trim_step0_waiting
                0x0000000010011894        0x0 Output\obj\driver\driver_clk.o
 .rela.text.audio_micin_trim_step1_init
                0x0000000010011894        0x0 Output\obj\driver\driver_clk.o
 .rela.text.audio_micin_trim_step2_run
                0x0000000010011894        0x0 Output\obj\driver\driver_clk.o
 .rela.text.audio_mic_trim_proc
                0x0000000010011894        0x0 Output\obj\driver\driver_clk.o
 .rela.text.cm_loadpage
                0x0000000010011894        0x0 Output\obj\driver\driver_clk.o
 .rela.text.cm_next_freepage
                0x0000000010011894        0x0 Output\obj\driver\driver_clk.o
 .rela.text.cm_factory
                0x0000000010011894        0x0 Output\obj\driver\driver_clk.o
 .rela.text.cm_writepage
                0x0000000010011894        0x0 Output\obj\driver\driver_clk.o
 .rela.text.cm_movepage
                0x0000000010011894        0x0 Output\obj\driver\driver_clk.o
 .rela.text.cm_erase
                0x0000000010011894        0x0 Output\obj\driver\driver_clk.o
 .rela.text.cm_release
                0x0000000010011894        0x0 Output\obj\driver\driver_clk.o
 .rela.text.cm_savepage
                0x0000000010011894        0x0 Output\obj\driver\driver_clk.o
 .rela.text.cm_check_loadpage
                0x0000000010011894        0x0 Output\obj\driver\driver_clk.o
 .rela.text.cm_move_allpages
                0x0000000010011894        0x0 Output\obj\driver\driver_clk.o
 .rela.text.cm_sync
                0x0000000010011894        0x0 Output\obj\driver\driver_clk.o
 .rela.text.cm_release_all
                0x0000000010011894        0x0 Output\obj\driver\driver_clk.o
 .rela.text.cm_read
                0x0000000010011894        0x0 Output\obj\driver\driver_clk.o
 .rela.text.cm_read8
                0x0000000010011894        0x0 Output\obj\driver\driver_clk.o
 .rela.text.cm_read16
                0x0000000010011894        0x0 Output\obj\driver\driver_clk.o
 .rela.text.cm_read32
                0x0000000010011894        0x0 Output\obj\driver\driver_clk.o
 .rela.text.cm_write
                0x0000000010011894        0x0 Output\obj\driver\driver_clk.o
 .rela.text.cm_write8
                0x0000000010011894        0x0 Output\obj\driver\driver_clk.o
 .rela.text.cm_write16
                0x0000000010011894        0x0 Output\obj\driver\driver_clk.o
 .rela.text.cm_write32
                0x0000000010011894        0x0 Output\obj\driver\driver_clk.o
 .rela.text.cm_clear
                0x0000000010011894        0x0 Output\obj\driver\driver_clk.o
 .rela.text.cm_init
                0x0000000010011894        0x0 Output\obj\driver\driver_clk.o
 .rela.com_text.spiflash.id
                0x0000000010011894        0x0 Output\obj\driver\driver_clk.o
 .rela.com_text.spiflash
                0x0000000010011894        0x0 Output\obj\driver\driver_clk.o
 .rela.text.xcfg_init
                0x0000000010011894        0x0 Output\obj\driver\driver_clk.o
 .rela.com_text.delay
                0x0000000010011894        0x0 Output\obj\driver\driver_clk.o
 .rela.text.platform_main
                0x0000000010011894        0x0 Output\obj\driver\driver_clk.o
 .rela.text.main_startup
                0x0000000010011894        0x0 Output\obj\driver\driver_clk.o
 .rela.com_text.irq
                0x0000000010011894        0x0 Output\obj\driver\driver_clk.o
 .rela.com_text.irq.wpt
                0x0000000010011894        0x0 Output\obj\driver\driver_clk.o
 .rela.text.sys_irq_init
                0x0000000010011894        0x0 Output\obj\driver\driver_clk.o
 .rela.text.soft_irq_init
                0x0000000010011894        0x0 Output\obj\driver\driver_clk.o
 .rela.text.bthw_irq_init
                0x0000000010011894        0x0 Output\obj\driver\driver_clk.o
 .rela.text.watch_point_set
                0x0000000010011894        0x0 Output\obj\driver\driver_clk.o
 .rela.text.usb_irq_init
                0x0000000010011894        0x0 Output\obj\driver\driver_clk.o
 .rela.text.sys_timer_init
                0x0000000010011894        0x0 Output\obj\driver\driver_clk.o
 .rela.text.thread_timer_create
                0x0000000010011894        0x0 Output\obj\driver\driver_clk.o
 .rela.text.thread_btstack_create
                0x0000000010011894        0x0 Output\obj\driver\driver_clk.o
 .rela.text.thread_driver_create
                0x0000000010011894        0x0 Output\obj\driver\driver_clk.o
 .rela.text.thread_main_entry
                0x0000000010011894        0x0 Output\obj\driver\driver_clk.o
 .rela.text.startup.init
                0x0000000010011894        0x0 Output\obj\driver\driver_clk.o
 .rela.com_text.thread.driver.usb
                0x0000000010011894        0x0 Output\obj\driver\driver_clk.o
 .rela.com_text.thread.driver.vs
                0x0000000010011894        0x0 Output\obj\driver\driver_clk.o
 .rela.com_text.thread.driver.enter
                0x0000000010011894        0x0 Output\obj\driver\driver_clk.o
 .rela.text.pll0_vco_band_trimming
                0x0000000010011894        0x0 Output\obj\driver\driver_clk.o
 .rela.text.pll0_init
                0x0000000010011894        0x0 Output\obj\driver\driver_clk.o
 .rela.text.pll_ext_init
                0x0000000010011894        0x0 Output\obj\driver\driver_clk.o
 .rela.com_text.trim.vddio_get
                0x0000000010011894        0x0 Output\obj\driver\driver_clk.o
 .rela.com_text.trim.vddio_set
                0x0000000010011894        0x0 Output\obj\driver\driver_clk.o
 .rela.com_text.trim.core_get
                0x0000000010011894        0x0 Output\obj\driver\driver_clk.o
 .rela.com_text.trim.core_set
                0x0000000010011894        0x0 Output\obj\driver\driver_clk.o
 .rela.com_text.trim.lvd_get
                0x0000000010011894        0x0 Output\obj\driver\driver_clk.o
 .rela.com_text.trim.lvd_set
                0x0000000010011894        0x0 Output\obj\driver\driver_clk.o
 .rela.text.pmu_voltage_configure
                0x0000000010011894        0x0 Output\obj\driver\driver_clk.o
 .rela.text.pmu_init
                0x0000000010011894        0x0 Output\obj\driver\driver_clk.o
 .rela.reset    0x0000000010011894        0x0 Output\obj\driver\driver_clk.o
 .rela.vector   0x0000000010011894        0x0 Output\obj\driver\driver_clk.o
 .rela.text.lock_code_usbdev
                0x0000000010011894        0x0 Output\obj\driver\driver_clk.o
 .rela.text.patch_init
                0x0000000010011894        0x0 Output\obj\driver\driver_clk.o
 .rela.com_sleep.lp.sleep
                0x0000000010011894        0x0 Output\obj\driver\driver_clk.o
 .rela.text.rc2m_clk_nhz_cal
                0x0000000010011894        0x0 Output\obj\driver\driver_clk.o
 .rela.text.sys_clk
                0x0000000010011894        0x0 Output\obj\driver\driver_clk.o
 .rela.com_text.stack.api
                0x0000000010011894        0x0 Output\obj\driver\driver_clk.o
 .rela.com_text.stack.run_loop
                0x0000000010011894        0x0 Output\obj\driver\driver_clk.o
 .rela.text     0x0000000010011894        0x0 Output\obj\driver\driver_clk.o
 .rela.text.stack.send.txpkt
                0x0000000010011894        0x0 Output\obj\driver\driver_clk.o
 .rela.text.txpkt.flush
                0x0000000010011894        0x0 Output\obj\driver\driver_clk.o
 .rela.text.stack.hci_init
                0x0000000010011894        0x0 Output\obj\driver\driver_clk.o
 .rela.text.stack.setup
                0x0000000010011894        0x0 Output\obj\driver\driver_clk.o
 .rela.text.stack.hci
                0x0000000010011894        0x0 Output\obj\driver\driver_clk.o
 .rela.text.stack.hci.conn
                0x0000000010011894        0x0 Output\obj\driver\driver_clk.o
 .rela.text.ble.hci
                0x0000000010011894        0x0 Output\obj\driver\driver_clk.o
 .rela.text.stack.hci_send
                0x0000000010011894        0x0 Output\obj\driver\driver_clk.o
 .rela.text.stack.hci.run
                0x0000000010011894        0x0 Output\obj\driver\driver_clk.o
 .rela.text.stack.send.hci
                0x0000000010011894        0x0 Output\obj\driver\driver_clk.o
 .rela.com_text.stack.hci_recv
                0x0000000010011894        0x0 Output\obj\driver\driver_clk.o
 .rela.text.sm.aes
                0x0000000010011894        0x0 Output\obj\driver\driver_clk.o
 .rela.text.sm.rau_run
                0x0000000010011894        0x0 Output\obj\driver\driver_clk.o
 .rela.text.gap.rau.update
                0x0000000010011894        0x0 Output\obj\driver\driver_clk.o
 .rela.text.sm.request
                0x0000000010011894        0x0 Output\obj\driver\driver_clk.o
 .rela.text.stack.ble.sm
                0x0000000010011894        0x0 Output\obj\driver\driver_clk.o
 .rela.text.gap.rau.mode
                0x0000000010011894        0x0 Output\obj\driver\driver_clk.o
 .rela.text.sm.run
                0x0000000010011894        0x0 Output\obj\driver\driver_clk.o
 .rela.text.sm.pdu
                0x0000000010011894        0x0 Output\obj\driver\driver_clk.o
 .rela.text.sm.event
                0x0000000010011894        0x0 Output\obj\driver\driver_clk.o
 .rela.text.gap.rau_set
                0x0000000010011894        0x0 Output\obj\driver\driver_clk.o
 .rela.text.sm.delete_bonding
                0x0000000010011894        0x0 Output\obj\driver\driver_clk.o
 .rela.text.le.db.get
                0x0000000010011894        0x0 Output\obj\driver\driver_clk.o
 .rela.text.le.db.set
                0x0000000010011894        0x0 Output\obj\driver\driver_clk.o
 .rela.text.le.db.read
                0x0000000010011894        0x0 Output\obj\driver\driver_clk.o
 .rela.text.le.db.init
                0x0000000010011894        0x0 Output\obj\driver\driver_clk.o
 .rela.text.le.db.remove
                0x0000000010011894        0x0 Output\obj\driver\driver_clk.o
 .rela.text.le.db.remove_all
                0x0000000010011894        0x0 Output\obj\driver\driver_clk.o
 .rela.text.le.db.add
                0x0000000010011894        0x0 Output\obj\driver\driver_clk.o
 .rela.text.le.db
                0x0000000010011894        0x0 Output\obj\driver\driver_clk.o
 .rela.text.le.db.dump
                0x0000000010011894        0x0 Output\obj\driver\driver_clk.o
 .rela.text.stack.send.ntf_do
                0x0000000010011894        0x0 Output\obj\driver\driver_clk.o
 .rela.text.stack.send.ntf
                0x0000000010011894        0x0 Output\obj\driver\driver_clk.o
 .rela.text.ble.indicate
                0x0000000010011894        0x0 Output\obj\driver\driver_clk.o
 .rela.text.stack.send.server
                0x0000000010011894        0x0 Output\obj\driver\driver_clk.o
 .rela.text.client.request_can_send
                0x0000000010011894        0x0 Output\obj\driver\driver_clk.o
 .rela.text.client.write_req
                0x0000000010011894        0x0 Output\obj\driver\driver_clk.o
 .rela.text.sm.client
                0x0000000010011894        0x0 Output\obj\driver\driver_clk.o
 .rela.text.stack.send.client
                0x0000000010011894        0x0 Output\obj\driver\driver_clk.o
 .rela.text.sm.server
                0x0000000010011894        0x0 Output\obj\driver\driver_clk.o
 .rela.text.server.init
                0x0000000010011894        0x0 Output\obj\driver\driver_clk.o
 .rela.text.server.packet_handler
                0x0000000010011894        0x0 Output\obj\driver\driver_clk.o
 .rela.text.att.event_handler
                0x0000000010011894        0x0 Output\obj\driver\driver_clk.o
 .rela.text.server.indicate
                0x0000000010011894        0x0 Output\obj\driver\driver_clk.o
 .rela.text.att.register_client
                0x0000000010011894        0x0 Output\obj\driver\driver_clk.o
 .rela.text.att.register_server
                0x0000000010011894        0x0 Output\obj\driver\driver_clk.o
 .rela.text.att.dispatch_server
                0x0000000010011894        0x0 Output\obj\driver\driver_clk.o
 .rela.text.att.dispatch_client
                0x0000000010011894        0x0 Output\obj\driver\driver_clk.o
 .rela.text.stack.send.dispatch_server
                0x0000000010011894        0x0 Output\obj\driver\driver_clk.o
 .rela.text.att.mtu_request
                0x0000000010011894        0x0 Output\obj\driver\driver_clk.o
 .rela.text.stack.h3c
                0x0000000010011894        0x0 Output\obj\driver\driver_clk.o
 .rela.com_text.stack.h3c
                0x0000000010011894        0x0 Output\obj\driver\driver_clk.o
 .rela.com_text.stack.util
                0x0000000010011894        0x0 Output\obj\driver\driver_clk.o
 .rela.text.btstack.hci.h3c.init
                0x0000000010011894        0x0 Output\obj\driver\driver_clk.o
 .rela.rodata   0x0000000010011894        0x0 Output\obj\driver\driver_clk.o
 .rela.com_text.stack.uart_isr
                0x0000000010011894        0x0 Output\obj\driver\driver_clk.o
 .rela.text.stack.hal
                0x0000000010011894        0x0 Output\obj\driver\driver_clk.o
 .rela.text.stack.sleep
                0x0000000010011894        0x0 Output\obj\driver\driver_clk.o
 .rela.text.stack.api
                0x0000000010011894        0x0 Output\obj\driver\driver_clk.o
 .rela.com_text.ret.bb.sleep
                0x0000000010011894        0x0 Output\obj\driver\driver_clk.o
 .rela.rodata.stack.api
                0x0000000010011894        0x0 Output\obj\driver\driver_clk.o
 .rela.text.ble.api.conn.update
                0x0000000010011894        0x0 Output\obj\driver\driver_clk.o
 .rela.text.ble.api.max_mtu
                0x0000000010011894        0x0 Output\obj\driver\driver_clk.o
 .rela.text.ble.api.adv_data.set
                0x0000000010011894        0x0 Output\obj\driver\driver_clk.o
 .rela.text.ble.api.scan
                0x0000000010011894        0x0 Output\obj\driver\driver_clk.o
 .rela.text.ble.api.adv_interval.set
                0x0000000010011894        0x0 Output\obj\driver\driver_clk.o
 .rela.text.ble.api.adv_param.set
                0x0000000010011894        0x0 Output\obj\driver\driver_clk.o
 .rela.text.ble.api.regist
                0x0000000010011894        0x0 Output\obj\driver\driver_clk.o
 .rela.text.ble.set_static_addr
                0x0000000010011894        0x0 Output\obj\driver\driver_clk.o
 .rela.text.ble.single_mode
                0x0000000010011894        0x0 Output\obj\driver\driver_clk.o
 .rela.text.rf.tx_tone
                0x0000000010011894        0x0 Output\obj\driver\driver_clk.o
 .rela.text.le.mgr
                0x0000000010011894        0x0 Output\obj\driver\driver_clk.o
 .rela.rodata.le.mgr_cntl.tbl
                0x0000000010011894        0x0 Output\obj\driver\driver_clk.o
 .rela.text.le.ll_adv.con
                0x0000000010011894        0x0 Output\obj\driver\driver_clk.o
 .rela.text.le.ll_adv
                0x0000000010011894        0x0 Output\obj\driver\driver_clk.o
 .rela.text.le.ll_cntl.pdu
                0x0000000010011894        0x0 Output\obj\driver\driver_clk.o
 .rela.text.le.ll_cntl.send
                0x0000000010011894        0x0 Output\obj\driver\driver_clk.o
 .rela.rodata.le.ll_cntl.tbl
                0x0000000010011894        0x0 Output\obj\driver\driver_clk.o
 .rela.text.le.ll_cntl
                0x0000000010011894        0x0 Output\obj\driver\driver_clk.o
 .rela.text.le.ll_cntl.start
                0x0000000010011894        0x0 Output\obj\driver\driver_clk.o
 .rela.com_text.ble.isr.con.end
                0x0000000010011894        0x0 Output\obj\driver\driver_clk.o
 .rela.com_text.ble.isr.con.rx_desc
                0x0000000010011894        0x0 Output\obj\driver\driver_clk.o
 .rela.com_text.bb.buf
                0x0000000010011894        0x0 Output\obj\driver\driver_clk.o
 .rela.text.le.stack
                0x0000000010011894        0x0 Output\obj\driver\driver_clk.o
 .rela.com_text.bb.isr
                0x0000000010011894        0x0 Output\obj\driver\driver_clk.o
 .rela.com_sleep.bb
                0x0000000010011894        0x0 Output\obj\driver\driver_clk.o
 .rela.text.bb.aes
                0x0000000010011894        0x0 Output\obj\driver\driver_clk.o
 .rela.text.stack.ble.setup
                0x0000000010011894        0x0 Output\obj\driver\driver_clk.o
 .rela.com_sleep.rfphy
                0x0000000010011894        0x0 Output\obj\driver\driver_clk.o
 .rela.text.rfphy.other
                0x0000000010011894        0x0 Output\obj\driver\driver_clk.o
 .rela.com_sleep.rfphy.init
                0x0000000010011894        0x0 Output\obj\driver\driver_clk.o
 .rela.com_text.ble.isr
                0x0000000010011894        0x0 Output\obj\driver\driver_clk.o
 .rela.com_rodata.bb.tbl
                0x0000000010011894        0x0 Output\obj\driver\driver_clk.o
 .rela.text.ble.var.init
                0x0000000010011894        0x0 Output\obj\driver\driver_clk.o
 .rela.text.bb.vs.fcc
                0x0000000010011894        0x0 Output\obj\driver\driver_clk.o
                0x0000000010011894        0x4 LONG 0x0
                0x0000000010011a00                . = ALIGN (0x200)
 *fill*         0x0000000010011898      0x168 

.stack          0x0000000000010800      0x400
                0x0000000000010800                __irq_stack_start = .
                0x0000000000000400                . = 0x400
 *fill*         0x0000000000010800      0x400 
                0x0000000000010c00                __irq_stack = .
                0x0000000000000400                __irq_stack_size = (__irq_stack - __irq_stack_start)
                0x0000000000010600                __bank_size = SIZEOF (.flash)
                0x0000000010000200                __comm_lma = LOADADDR (.comm)
                0x0000000000000f00                __comm_size = SIZEOF (.comm)
                0x0000000010001100                __pdn_comm_lma = LOADADDR (.pdn_comm)
                0x0000000000000200                __pdn_comm_size = SIZEOF (.pdn_comm)
LOAD ..\..\libs\cpu\libplatform.a
LOAD ..\..\libs\cpu\libm.a
LOAD ..\..\libs\cpu\libc.a
LOAD ..\..\libs\cpu\libgcc.a
LOAD ..\..\libs\ble\libbtstack.a
OUTPUT(Output\bin\app.rv32 elf32-littleriscv)

.comment        0x0000000000000000       0x23
 .comment       0x0000000000000000       0x11 Output\obj\driver\driver_clk.o
                                         0x12 (size before relaxing)
 .comment       0x0000000000000011       0x12 Output\obj\driver\driver_gpio.o
 .comment       0x0000000000000011       0x12 Output\obj\driver\driver_lowpwr.o
 .comment       0x0000000000000011       0x12 Output\obj\driver\driver_saradc.o
 .comment       0x0000000000000011       0x12 Output\obj\driver\driver_uart.o
 .comment       0x0000000000000011       0x12 Output\obj\project\ble_peripheral\app\func.o
 .comment       0x0000000000000011       0x12 Output\obj\project\ble_peripheral\app\func_bt.o
 .comment       0x0000000000000011       0x12 Output\obj\project\ble_peripheral\app\func_idle.o
 .comment       0x0000000000000011       0x12 Output\obj\project\ble_peripheral\app\func_lowpwr.o
 .comment       0x0000000000000011       0x12 Output\obj\project\ble_peripheral\ble\ble_adv.o
 .comment       0x0000000000000011       0x12 Output\obj\project\ble_peripheral\ble\ble_init.o
 .comment       0x0000000000000011       0x12 Output\obj\project\ble_peripheral\ble\ble_proc.o
 .comment       0x0000000000000011       0x12 Output\obj\project\ble_peripheral\ble\ble_profile.o
 .comment       0x0000000000000011       0x12 Output\obj\project\ble_peripheral\ble\ble_service.o
 .comment       0x0000000000000011       0x12 Output\obj\project\ble_peripheral\ble\ble_user_service.o
 .comment       0x0000000000000011       0x12 Output\obj\project\ble_peripheral\bsp\bsp_param.o
 .comment       0x0000000000000011       0x12 Output\obj\project\ble_peripheral\bsp\bsp_sys.o
 .comment       0x0000000000000011       0x12 Output\obj\project\ble_peripheral\bsp\bsp_uart_transfer.o
 .comment       0x0000000000000011       0x12 Output\obj\project\ble_peripheral\main.o
 .comment       0x0000000000000011       0x12 Output\obj\project\ble_peripheral\prod_test\prod_test.o
 .comment       0x0000000000000011       0x12 Output\obj\project\ble_peripheral\strong_ble.o
 .comment       0x0000000000000011       0x12 Output\obj\project\ble_peripheral\strong_symbol.o
 .comment       0x0000000000000011       0x12 ..\..\libs\cpu\libplatform.a(cm.o)
                                         0x13 (size before relaxing)
 .comment       0x0000000000000023       0x13 ..\..\libs\cpu\libplatform.a(os_flash.o)
 .comment       0x0000000000000023       0x13 ..\..\libs\cpu\libplatform.a(xcfg.o)
 .comment       0x0000000000000023       0x13 ..\..\libs\cpu\libplatform.a(main.o)
 .comment       0x0000000000000023       0x13 ..\..\libs\cpu\libplatform.a(interrupt.o)
 .comment       0x0000000000000023       0x13 ..\..\libs\cpu\libplatform.a(startup.o)
 .comment       0x0000000000000023       0x13 ..\..\libs\cpu\libplatform.a(sys_hook.o)
 .comment       0x0000000000000023       0x13 ..\..\libs\cpu\libplatform.a(pll.o)
 .comment       0x0000000000000023       0x13 ..\..\libs\cpu\libplatform.a(pmu.o)
 .comment       0x0000000000000023       0x13 ..\..\libs\cpu\libplatform.a(spiflash.o)
 .comment       0x0000000000000023       0x13 ..\..\libs\cpu\libplatform.a(debug.o)
 .comment       0x0000000000000023       0x13 ..\..\libs\cpu\libplatform.a(fot_pack.o)
 .comment       0x0000000000000023       0x13 ..\..\libs\cpu\libplatform.a(lock.o)
 .comment       0x0000000000000023       0x13 ..\..\libs\cpu\libplatform.a(patch.o)
 .comment       0x0000000000000023       0x13 ..\..\libs\cpu\libplatform.a(sys.o)
 .comment       0x0000000000000023       0x13 ..\..\libs\cpu\libplatform.a(sys_clk.o)
 .comment       0x0000000000000023       0x13 ..\..\libs\cpu\libplatform.a(voltage_trim.o)
 .comment       0x0000000000000023       0x13 ..\..\libs\cpu\libplatform.a(weak_symbol.o)
 .comment       0x0000000000000023       0x13 ..\..\libs\cpu\libplatform.a(bt.o)
 .comment       0x0000000000000023       0x13 ..\..\libs\cpu\libplatform.a(freq_det.o)
 .comment       0x0000000000000023       0x13 ..\..\libs\ble\libbtstack.a(txpkt.o)
 .comment       0x0000000000000023       0x13 ..\..\libs\ble\libbtstack.a(hci.o)
 .comment       0x0000000000000023       0x13 ..\..\libs\ble\libbtstack.a(btstack_util.o)
 .comment       0x0000000000000023       0x13 ..\..\libs\ble\libbtstack.a(sm.o)
 .comment       0x0000000000000023       0x13 ..\..\libs\ble\libbtstack.a(le_device_db_memory.o)
 .comment       0x0000000000000023       0x13 ..\..\libs\ble\libbtstack.a(gatt_server.o)
 .comment       0x0000000000000023       0x13 ..\..\libs\ble\libbtstack.a(gatt_client.o)
 .comment       0x0000000000000023       0x13 ..\..\libs\ble\libbtstack.a(att_server.o)
 .comment       0x0000000000000023       0x13 ..\..\libs\ble\libbtstack.a(att_dispatch.o)
 .comment       0x0000000000000023       0x13 ..\..\libs\ble\libbtstack.a(att_db.o)
 .comment       0x0000000000000023       0x13 ..\..\libs\ble\libbtstack.a(hci_transport_h3_controller.o)
 .comment       0x0000000000000023       0x13 ..\..\libs\ble\libbtstack.a(hci_transport_dummy.o)
 .comment       0x0000000000000023       0x13 ..\..\libs\ble\libbtstack.a(btstack_hal.o)
 .comment       0x0000000000000023       0x13 ..\..\libs\ble\libbtstack.a(btstack_api.o)
 .comment       0x0000000000000023       0x13 ..\..\libs\ble\libbtstack.a(ble_api.o)
 .comment       0x0000000000000023       0x13 ..\..\libs\ble\libbtstack.a(txpkt.o)
 .comment       0x0000000000000023       0x13 ..\..\libs\ble\libbtstack.a(platform.o)
 .comment       0x0000000000000023       0x13 ..\..\libs\ble\libbtstack.a(rf.o)
 .comment       0x0000000000000023       0x13 ..\..\libs\ble\libbtstack.a(hct_proc.o)
 .comment       0x0000000000000023       0x13 ..\..\libs\ble\libbtstack.a(hct.o)
 .comment       0x0000000000000023       0x13 ..\..\libs\ble\libbtstack.a(mgr_hci.o)
 .comment       0x0000000000000023       0x13 ..\..\libs\ble\libbtstack.a(mgr.o)
 .comment       0x0000000000000023       0x13 ..\..\libs\ble\libbtstack.a(ll_adv.o)
 .comment       0x0000000000000023       0x13 ..\..\libs\ble\libbtstack.a(ll_con_upd.o)
 .comment       0x0000000000000023       0x13 ..\..\libs\ble\libbtstack.a(ll_cntl.o)
 .comment       0x0000000000000023       0x13 ..\..\libs\ble\libbtstack.a(ll_clk_acc.o)
 .comment       0x0000000000000023       0x13 ..\..\libs\ble\libbtstack.a(ll_chmap_upd.o)
 .comment       0x0000000000000023       0x13 ..\..\libs\ble\libbtstack.a(ll.o)
 .comment       0x0000000000000023       0x13 ..\..\libs\ble\libbtstack.a(ble_hal.o)
 .comment       0x0000000000000023       0x13 ..\..\libs\ble\libbtstack.a(ble_con.o)
 .comment       0x0000000000000023       0x13 ..\..\libs\ble\libbtstack.a(ble_adv.o)
 .comment       0x0000000000000023       0x13 ..\..\libs\ble\libbtstack.a(ble_buf.o)
 .comment       0x0000000000000023       0x13 ..\..\libs\ble\libbtstack.a(bb_utils.o)
 .comment       0x0000000000000023       0x13 ..\..\libs\ble\libbtstack.a(bb_int.o)
 .comment       0x0000000000000023       0x13 ..\..\libs\ble\libbtstack.a(bb.o)
 .comment       0x0000000000000023       0x13 ..\..\libs\ble\libbtstack.a(extern_ble.o)
 .comment       0x0000000000000023       0x13 ..\..\libs\ble\libbtstack.a(l2cap.o)
 .comment       0x0000000000000023       0x13 ..\..\libs\ble\libbtstack.a(hci_dump.o)
 .comment       0x0000000000000023       0x13 ..\..\libs\ble\libbtstack.a(hci_cmd.o)
 .comment       0x0000000000000023       0x13 ..\..\libs\ble\libbtstack.a(btstack_run_loop.o)
 .comment       0x0000000000000023       0x13 ..\..\libs\ble\libbtstack.a(btstack_main.o)
 .comment       0x0000000000000023       0x13 ..\..\libs\ble\libbtstack.a(nanos.o)
 .comment       0x0000000000000023       0x13 ..\..\libs\ble\libbtstack.a(bb_sche.o)
 .comment       0x0000000000000023       0x13 ..\..\libs\ble\libbtstack.a(patch.o)
 .comment       0x0000000000000023       0x13 ..\..\libs\ble\libbtstack.a(bb_dbg.o)
 .comment       0x0000000000000023       0x13 ..\..\libs\ble\libbtstack.a(bb_clk.o)
 .comment       0x0000000000000023       0x13 ..\..\libs\ble\libbtstack.a(aes.o)
 .comment       0x0000000000000023       0x13 ..\..\libs\ble\libbtstack.a(extern.o)
 .comment       0x0000000000000023       0x13 ..\..\libs\ble\libbtstack.a(vs.o)
 .comment       0x0000000000000023       0x13 ..\..\libs\ble\libbtstack.a(rf_mate.o)
 .comment       0x0000000000000023       0x13 ..\..\libs\ble\libbtstack.a(ble_hook.o)
 .comment       0x0000000000000023       0x13 ..\..\libs\ble\libbtstack.a(adv_hook.o)
 .comment       0x0000000000000023       0x13 ..\..\libs\ble\libbtstack.a(hct_msg.o)
 .comment       0x0000000000000023       0x13 ..\..\libs\ble\libbtstack.a(mgr_test.o)
 .comment       0x0000000000000023       0x13 ..\..\libs\ble\libbtstack.a(mgr_proc.o)
 .comment       0x0000000000000023       0x13 ..\..\libs\ble\libbtstack.a(ll_version.o)
 .comment       0x0000000000000023       0x13 ..\..\libs\ble\libbtstack.a(ll_tbox_prod_test.o)
 .comment       0x0000000000000023       0x13 ..\..\libs\ble\libbtstack.a(ll_tbox_freq_cal.o)
 .comment       0x0000000000000023       0x13 ..\..\libs\ble\libbtstack.a(ll_tbox_feature.o)
 .comment       0x0000000000000023       0x13 ..\..\libs\ble\libbtstack.a(ll_proc.o)
 .comment       0x0000000000000023       0x13 ..\..\libs\ble\libbtstack.a(ll_phy_upd.o)
 .comment       0x0000000000000023       0x13 ..\..\libs\ble\libbtstack.a(ll_length.o)
 .comment       0x0000000000000023       0x13 ..\..\libs\ble\libbtstack.a(ll_feature.o)
 .comment       0x0000000000000023       0x13 ..\..\libs\ble\libbtstack.a(ll_encrypt.o)
 .comment       0x0000000000000023       0x13 ..\..\libs\ble\libbtstack.a(ll_disconnect.o)
 .comment       0x0000000000000023       0x13 ..\..\libs\ble\libbtstack.a(ble_test.o)
 .comment       0x0000000000000023       0x13 ..\..\libs\ble\libbtstack.a(ble.o)
 .comment       0x0000000000000023       0x13 ..\..\libs\ble\libbtstack.a(bb_alarm.o)
 .comment       0x0000000000000023       0x13 ..\..\libs\ble\libbtstack.a(l2cap_signaling.o)
 .comment       0x0000000000000023       0x13 ..\..\libs\ble\libbtstack.a(vs_proc.o)
 .comment       0x0000000000000023       0x13 ..\..\libs\ble\libbtstack.a(vs_fcc.o)
 .comment       0x0000000000000023       0x13 ..\..\libs\ble\libbtstack.a(ble_sync.o)
 .comment       0x0000000000000023       0x13 ..\..\libs\ble\libbtstack.a(ble_scan.o)
 .comment       0x0000000000000023       0x13 ..\..\libs\ble\libbtstack.a(ble_init.o)

.riscv.attributes
                0x0000000000000000     0x12f0
 .riscv.attributes
                0x0000000000000000       0x32 ..\..\libs\cpu\libplatform.a(cm.o)
 .riscv.attributes
                0x0000000000000032       0x32 ..\..\libs\cpu\libplatform.a(os_flash.o)
 .riscv.attributes
                0x0000000000000064       0x32 ..\..\libs\cpu\libplatform.a(xcfg.o)
 .riscv.attributes
                0x0000000000000096       0x32 ..\..\libs\cpu\libplatform.a(main.o)
 .riscv.attributes
                0x00000000000000c8       0x32 ..\..\libs\cpu\libplatform.a(interrupt.o)
 .riscv.attributes
                0x00000000000000fa       0x32 ..\..\libs\cpu\libplatform.a(startup.o)
 .riscv.attributes
                0x000000000000012c       0x32 ..\..\libs\cpu\libplatform.a(sys_hook.o)
 .riscv.attributes
                0x000000000000015e       0x32 ..\..\libs\cpu\libplatform.a(pll.o)
 .riscv.attributes
                0x0000000000000190       0x32 ..\..\libs\cpu\libplatform.a(pmu.o)
 .riscv.attributes
                0x00000000000001c2       0x34 ..\..\libs\cpu\libplatform.a(reset.o)
 .riscv.attributes
                0x00000000000001f6       0x32 ..\..\libs\cpu\libplatform.a(spiflash.o)
 .riscv.attributes
                0x0000000000000228       0x32 ..\..\libs\cpu\libplatform.a(debug.o)
 .riscv.attributes
                0x000000000000025a       0x32 ..\..\libs\cpu\libplatform.a(fot_pack.o)
 .riscv.attributes
                0x000000000000028c       0x32 ..\..\libs\cpu\libplatform.a(lock.o)
 .riscv.attributes
                0x00000000000002be       0x32 ..\..\libs\cpu\libplatform.a(patch.o)
 .riscv.attributes
                0x00000000000002f0       0x30 ..\..\libs\cpu\libplatform.a(s_sys.o)
 .riscv.attributes
                0x0000000000000320       0x32 ..\..\libs\cpu\libplatform.a(sys.o)
 .riscv.attributes
                0x0000000000000352       0x32 ..\..\libs\cpu\libplatform.a(sys_clk.o)
 .riscv.attributes
                0x0000000000000384       0x32 ..\..\libs\cpu\libplatform.a(voltage_trim.o)
 .riscv.attributes
                0x00000000000003b6       0x32 ..\..\libs\cpu\libplatform.a(weak_symbol.o)
 .riscv.attributes
                0x00000000000003e8       0x32 ..\..\libs\cpu\libplatform.a(bt.o)
 .riscv.attributes
                0x000000000000041a       0x32 ..\..\libs\cpu\libplatform.a(freq_det.o)
 .riscv.attributes
                0x000000000000044c       0x32 ..\..\libs\ble\libbtstack.a(txpkt.o)
 .riscv.attributes
                0x000000000000047e       0x32 ..\..\libs\ble\libbtstack.a(hci.o)
 .riscv.attributes
                0x00000000000004b0       0x32 ..\..\libs\ble\libbtstack.a(btstack_util.o)
 .riscv.attributes
                0x00000000000004e2       0x32 ..\..\libs\ble\libbtstack.a(sm.o)
 .riscv.attributes
                0x0000000000000514       0x32 ..\..\libs\ble\libbtstack.a(le_device_db_memory.o)
 .riscv.attributes
                0x0000000000000546       0x32 ..\..\libs\ble\libbtstack.a(gatt_server.o)
 .riscv.attributes
                0x0000000000000578       0x32 ..\..\libs\ble\libbtstack.a(gatt_client.o)
 .riscv.attributes
                0x00000000000005aa       0x32 ..\..\libs\ble\libbtstack.a(att_server.o)
 .riscv.attributes
                0x00000000000005dc       0x32 ..\..\libs\ble\libbtstack.a(att_dispatch.o)
 .riscv.attributes
                0x000000000000060e       0x32 ..\..\libs\ble\libbtstack.a(att_db.o)
 .riscv.attributes
                0x0000000000000640       0x32 ..\..\libs\ble\libbtstack.a(hci_transport_h3_controller.o)
 .riscv.attributes
                0x0000000000000672       0x32 ..\..\libs\ble\libbtstack.a(hci_transport_dummy.o)
 .riscv.attributes
                0x00000000000006a4       0x32 ..\..\libs\ble\libbtstack.a(btstack_hal.o)
 .riscv.attributes
                0x00000000000006d6       0x32 ..\..\libs\ble\libbtstack.a(btstack_api.o)
 .riscv.attributes
                0x0000000000000708       0x32 ..\..\libs\ble\libbtstack.a(ble_api.o)
 .riscv.attributes
                0x000000000000073a       0x32 ..\..\libs\ble\libbtstack.a(txpkt.o)
 .riscv.attributes
                0x000000000000076c       0x32 ..\..\libs\ble\libbtstack.a(platform.o)
 .riscv.attributes
                0x000000000000079e       0x32 ..\..\libs\ble\libbtstack.a(rf.o)
 .riscv.attributes
                0x00000000000007d0       0x32 ..\..\libs\ble\libbtstack.a(hct_proc.o)
 .riscv.attributes
                0x0000000000000802       0x32 ..\..\libs\ble\libbtstack.a(hct.o)
 .riscv.attributes
                0x0000000000000834       0x32 ..\..\libs\ble\libbtstack.a(mgr_hci.o)
 .riscv.attributes
                0x0000000000000866       0x32 ..\..\libs\ble\libbtstack.a(mgr.o)
 .riscv.attributes
                0x0000000000000898       0x32 ..\..\libs\ble\libbtstack.a(ll_adv.o)
 .riscv.attributes
                0x00000000000008ca       0x32 ..\..\libs\ble\libbtstack.a(ll_con_upd.o)
 .riscv.attributes
                0x00000000000008fc       0x32 ..\..\libs\ble\libbtstack.a(ll_cntl.o)
 .riscv.attributes
                0x000000000000092e       0x32 ..\..\libs\ble\libbtstack.a(ll_clk_acc.o)
 .riscv.attributes
                0x0000000000000960       0x32 ..\..\libs\ble\libbtstack.a(ll_chmap_upd.o)
 .riscv.attributes
                0x0000000000000992       0x32 ..\..\libs\ble\libbtstack.a(ll.o)
 .riscv.attributes
                0x00000000000009c4       0x32 ..\..\libs\ble\libbtstack.a(ble_hal.o)
 .riscv.attributes
                0x00000000000009f6       0x32 ..\..\libs\ble\libbtstack.a(ble_con.o)
 .riscv.attributes
                0x0000000000000a28       0x32 ..\..\libs\ble\libbtstack.a(ble_adv.o)
 .riscv.attributes
                0x0000000000000a5a       0x32 ..\..\libs\ble\libbtstack.a(ble_buf.o)
 .riscv.attributes
                0x0000000000000a8c       0x32 ..\..\libs\ble\libbtstack.a(bb_utils.o)
 .riscv.attributes
                0x0000000000000abe       0x32 ..\..\libs\ble\libbtstack.a(bb_int.o)
 .riscv.attributes
                0x0000000000000af0       0x32 ..\..\libs\ble\libbtstack.a(bb.o)
 .riscv.attributes
                0x0000000000000b22       0x32 ..\..\libs\ble\libbtstack.a(extern_ble.o)
 .riscv.attributes
                0x0000000000000b54       0x32 ..\..\libs\ble\libbtstack.a(l2cap.o)
 .riscv.attributes
                0x0000000000000b86       0x32 ..\..\libs\ble\libbtstack.a(hci_dump.o)
 .riscv.attributes
                0x0000000000000bb8       0x32 ..\..\libs\ble\libbtstack.a(hci_cmd.o)
 .riscv.attributes
                0x0000000000000bea       0x32 ..\..\libs\ble\libbtstack.a(btstack_run_loop.o)
 .riscv.attributes
                0x0000000000000c1c       0x32 ..\..\libs\ble\libbtstack.a(btstack_main.o)
 .riscv.attributes
                0x0000000000000c4e       0x32 ..\..\libs\ble\libbtstack.a(nanos.o)
 .riscv.attributes
                0x0000000000000c80       0x32 ..\..\libs\ble\libbtstack.a(bb_sche.o)
 .riscv.attributes
                0x0000000000000cb2       0x32 ..\..\libs\ble\libbtstack.a(patch.o)
 .riscv.attributes
                0x0000000000000ce4       0x32 ..\..\libs\ble\libbtstack.a(bb_dbg.o)
 .riscv.attributes
                0x0000000000000d16       0x32 ..\..\libs\ble\libbtstack.a(bb_clk.o)
 .riscv.attributes
                0x0000000000000d48       0x32 ..\..\libs\ble\libbtstack.a(aes.o)
 .riscv.attributes
                0x0000000000000d7a       0x32 ..\..\libs\ble\libbtstack.a(extern.o)
 .riscv.attributes
                0x0000000000000dac       0x32 ..\..\libs\ble\libbtstack.a(vs.o)
 .riscv.attributes
                0x0000000000000dde       0x32 ..\..\libs\ble\libbtstack.a(rf_mate.o)
 .riscv.attributes
                0x0000000000000e10       0x32 ..\..\libs\ble\libbtstack.a(ble_hook.o)
 .riscv.attributes
                0x0000000000000e42       0x32 ..\..\libs\ble\libbtstack.a(adv_hook.o)
 .riscv.attributes
                0x0000000000000e74       0x32 ..\..\libs\ble\libbtstack.a(hct_msg.o)
 .riscv.attributes
                0x0000000000000ea6       0x32 ..\..\libs\ble\libbtstack.a(mgr_test.o)
 .riscv.attributes
                0x0000000000000ed8       0x32 ..\..\libs\ble\libbtstack.a(mgr_proc.o)
 .riscv.attributes
                0x0000000000000f0a       0x32 ..\..\libs\ble\libbtstack.a(ll_version.o)
 .riscv.attributes
                0x0000000000000f3c       0x32 ..\..\libs\ble\libbtstack.a(ll_tbox_prod_test.o)
 .riscv.attributes
                0x0000000000000f6e       0x32 ..\..\libs\ble\libbtstack.a(ll_tbox_freq_cal.o)
 .riscv.attributes
                0x0000000000000fa0       0x32 ..\..\libs\ble\libbtstack.a(ll_tbox_feature.o)
 .riscv.attributes
                0x0000000000000fd2       0x32 ..\..\libs\ble\libbtstack.a(ll_proc.o)
 .riscv.attributes
                0x0000000000001004       0x32 ..\..\libs\ble\libbtstack.a(ll_phy_upd.o)
 .riscv.attributes
                0x0000000000001036       0x32 ..\..\libs\ble\libbtstack.a(ll_length.o)
 .riscv.attributes
                0x0000000000001068       0x32 ..\..\libs\ble\libbtstack.a(ll_feature.o)
 .riscv.attributes
                0x000000000000109a       0x32 ..\..\libs\ble\libbtstack.a(ll_encrypt.o)
 .riscv.attributes
                0x00000000000010cc       0x32 ..\..\libs\ble\libbtstack.a(ll_disconnect.o)
 .riscv.attributes
                0x00000000000010fe       0x32 ..\..\libs\ble\libbtstack.a(ble_test.o)
 .riscv.attributes
                0x0000000000001130       0x32 ..\..\libs\ble\libbtstack.a(ble.o)
 .riscv.attributes
                0x0000000000001162       0x32 ..\..\libs\ble\libbtstack.a(bb_alarm.o)
 .riscv.attributes
                0x0000000000001194       0x32 ..\..\libs\ble\libbtstack.a(l2cap_signaling.o)
 .riscv.attributes
                0x00000000000011c6       0x30 ..\..\libs\ble\libbtstack.a(patch_asm.o)
 .riscv.attributes
                0x00000000000011f6       0x32 ..\..\libs\ble\libbtstack.a(vs_proc.o)
 .riscv.attributes
                0x0000000000001228       0x32 ..\..\libs\ble\libbtstack.a(vs_fcc.o)
 .riscv.attributes
                0x000000000000125a       0x32 ..\..\libs\ble\libbtstack.a(ble_sync.o)
 .riscv.attributes
                0x000000000000128c       0x32 ..\..\libs\ble\libbtstack.a(ble_scan.o)
 .riscv.attributes
                0x00000000000012be       0x32 ..\..\libs\ble\libbtstack.a(ble_init.o)
